   1               		.file	"avr_subscriber.cpp"
   2               	__SP_H__ = 0x3e
   3               	__SP_L__ = 0x3d
   4               	__SREG__ = 0x3f
   5               	__RAMPZ__ = 0x3b
   6               	__tmp_reg__ = 0
   7               	__zero_reg__ = 1
   8               		.text
   9               	.Ltext0:
  10               		.cfi_sections	.debug_frame
  11               		.section	.text._ZNK8std_msgs4Time9serializeEPh,"axG",@progbits,_ZNK8std_msgs4Time9serializeEPh,com
  12               		.weak	_ZNK8std_msgs4Time9serializeEPh
  14               	_ZNK8std_msgs4Time9serializeEPh:
  15               	.LFB33:
  16               		.file 1 "./ros_lib/std_msgs/Time.h"
   1:./ros_lib/std_msgs/Time.h **** #ifndef _ROS_std_msgs_Time_h
   2:./ros_lib/std_msgs/Time.h **** #define _ROS_std_msgs_Time_h
   3:./ros_lib/std_msgs/Time.h **** 
   4:./ros_lib/std_msgs/Time.h **** #include <stdint.h>
   5:./ros_lib/std_msgs/Time.h **** #include <string.h>
   6:./ros_lib/std_msgs/Time.h **** #include <stdlib.h>
   7:./ros_lib/std_msgs/Time.h **** #include "ros/msg.h"
   8:./ros_lib/std_msgs/Time.h **** #include "ros/time.h"
   9:./ros_lib/std_msgs/Time.h **** 
  10:./ros_lib/std_msgs/Time.h **** namespace std_msgs
  11:./ros_lib/std_msgs/Time.h **** {
  12:./ros_lib/std_msgs/Time.h **** 
  13:./ros_lib/std_msgs/Time.h ****   class Time : public ros::Msg
  14:./ros_lib/std_msgs/Time.h ****   {
  15:./ros_lib/std_msgs/Time.h ****     public:
  16:./ros_lib/std_msgs/Time.h ****       typedef ros::Time _data_type;
  17:./ros_lib/std_msgs/Time.h ****       _data_type data;
  18:./ros_lib/std_msgs/Time.h **** 
  19:./ros_lib/std_msgs/Time.h ****     Time():
  20:./ros_lib/std_msgs/Time.h ****       data()
  21:./ros_lib/std_msgs/Time.h ****     {
  22:./ros_lib/std_msgs/Time.h ****     }
  23:./ros_lib/std_msgs/Time.h **** 
  24:./ros_lib/std_msgs/Time.h ****     virtual int serialize(unsigned char *outbuffer) const override
  17               		.loc 1 24 0
  18               		.cfi_startproc
  19               	.LVL0:
  20               	/* prologue: function */
  21               	/* frame size = 0 */
  22               	/* stack size = 0 */
  23               	.L__stack_usage = 0
  24 0000 DC01      		movw r26,r24
  25 0002 FB01      		movw r30,r22
  26               	.LVL1:
  25:./ros_lib/std_msgs/Time.h ****     {
  26:./ros_lib/std_msgs/Time.h ****       int offset = 0;
  27:./ros_lib/std_msgs/Time.h ****       *(outbuffer + offset + 0) = (this->data.sec >> (8 * 0)) & 0xFF;
  27               		.loc 1 27 0
  28 0004 1296      		adiw r26,2
  29 0006 8C91      		ld r24,X
  30 0008 1297      		sbiw r26,2
  31               	.LVL2:
  32 000a 8083      		st Z,r24
  28:./ros_lib/std_msgs/Time.h ****       *(outbuffer + offset + 1) = (this->data.sec >> (8 * 1)) & 0xFF;
  33               		.loc 1 28 0
  34 000c 1396      		adiw r26,3
  35 000e 8C91      		ld r24,X
  36 0010 1397      		sbiw r26,3
  37 0012 8183      		std Z+1,r24
  29:./ros_lib/std_msgs/Time.h ****       *(outbuffer + offset + 2) = (this->data.sec >> (8 * 2)) & 0xFF;
  38               		.loc 1 29 0
  39 0014 1496      		adiw r26,4
  40 0016 8C91      		ld r24,X
  41 0018 1497      		sbiw r26,4
  42 001a 8283      		std Z+2,r24
  30:./ros_lib/std_msgs/Time.h ****       *(outbuffer + offset + 3) = (this->data.sec >> (8 * 3)) & 0xFF;
  43               		.loc 1 30 0
  44 001c 1596      		adiw r26,5
  45 001e 8C91      		ld r24,X
  46 0020 1597      		sbiw r26,5
  47 0022 8383      		std Z+3,r24
  48               	.LVL3:
  31:./ros_lib/std_msgs/Time.h ****       offset += sizeof(this->data.sec);
  32:./ros_lib/std_msgs/Time.h ****       *(outbuffer + offset + 0) = (this->data.nsec >> (8 * 0)) & 0xFF;
  49               		.loc 1 32 0
  50 0024 1696      		adiw r26,6
  51 0026 8C91      		ld r24,X
  52 0028 1697      		sbiw r26,6
  53 002a 8483      		std Z+4,r24
  33:./ros_lib/std_msgs/Time.h ****       *(outbuffer + offset + 1) = (this->data.nsec >> (8 * 1)) & 0xFF;
  54               		.loc 1 33 0
  55 002c 1796      		adiw r26,7
  56 002e 8C91      		ld r24,X
  57 0030 1797      		sbiw r26,7
  58 0032 8583      		std Z+5,r24
  34:./ros_lib/std_msgs/Time.h ****       *(outbuffer + offset + 2) = (this->data.nsec >> (8 * 2)) & 0xFF;
  59               		.loc 1 34 0
  60 0034 1896      		adiw r26,8
  61 0036 8C91      		ld r24,X
  62 0038 1897      		sbiw r26,8
  63 003a 8683      		std Z+6,r24
  35:./ros_lib/std_msgs/Time.h ****       *(outbuffer + offset + 3) = (this->data.nsec >> (8 * 3)) & 0xFF;
  64               		.loc 1 35 0
  65 003c 1996      		adiw r26,9
  66 003e 8C91      		ld r24,X
  67 0040 8783      		std Z+7,r24
  68               	.LVL4:
  36:./ros_lib/std_msgs/Time.h ****       offset += sizeof(this->data.nsec);
  37:./ros_lib/std_msgs/Time.h ****       return offset;
  38:./ros_lib/std_msgs/Time.h ****     }
  69               		.loc 1 38 0
  70 0042 88E0      		ldi r24,lo8(8)
  71 0044 90E0      		ldi r25,0
  72 0046 0895      		ret
  73               		.cfi_endproc
  74               	.LFE33:
  76               		.section	.text._ZN8std_msgs4Time11deserializeEPh,"axG",@progbits,_ZN8std_msgs4Time11deserializeEPh
  77               		.weak	_ZN8std_msgs4Time11deserializeEPh
  79               	_ZN8std_msgs4Time11deserializeEPh:
  80               	.LFB34:
  39:./ros_lib/std_msgs/Time.h **** 
  40:./ros_lib/std_msgs/Time.h ****     virtual int deserialize(unsigned char *inbuffer) override
  81               		.loc 1 40 0
  82               		.cfi_startproc
  83               	.LVL5:
  84               	/* prologue: function */
  85               	/* frame size = 0 */
  86               	/* stack size = 0 */
  87               	.L__stack_usage = 0
  88 0000 FC01      		movw r30,r24
  89 0002 DB01      		movw r26,r22
  90               	.LVL6:
  41:./ros_lib/std_msgs/Time.h ****     {
  42:./ros_lib/std_msgs/Time.h ****       int offset = 0;
  43:./ros_lib/std_msgs/Time.h ****       this->data.sec =  ((uint32_t) (*(inbuffer + offset)));
  91               		.loc 1 43 0
  92 0004 4C91      		ld r20,X
  93 0006 50E0      		ldi r21,0
  94 0008 60E0      		ldi r22,0
  95 000a 70E0      		ldi r23,0
  96               	.LVL7:
  97 000c 4283      		std Z+2,r20
  98 000e 5383      		std Z+3,r21
  99 0010 6483      		std Z+4,r22
 100 0012 7583      		std Z+5,r23
  44:./ros_lib/std_msgs/Time.h ****       this->data.sec |= ((uint32_t) (*(inbuffer + offset + 1))) << (8 * 1);
 101               		.loc 1 44 0
 102 0014 1196      		adiw r26,1
 103 0016 8C91      		ld r24,X
 104 0018 1197      		sbiw r26,1
 105               	.LVL8:
 106 001a 582B      		or r21,r24
 107 001c 4283      		std Z+2,r20
 108 001e 5383      		std Z+3,r21
 109 0020 6483      		std Z+4,r22
 110 0022 7583      		std Z+5,r23
  45:./ros_lib/std_msgs/Time.h ****       this->data.sec |= ((uint32_t) (*(inbuffer + offset + 2))) << (8 * 2);
 111               		.loc 1 45 0
 112 0024 1296      		adiw r26,2
 113 0026 8C91      		ld r24,X
 114 0028 1297      		sbiw r26,2
 115 002a 682B      		or r22,r24
 116 002c 4283      		std Z+2,r20
 117 002e 5383      		std Z+3,r21
 118 0030 6483      		std Z+4,r22
 119 0032 7583      		std Z+5,r23
  46:./ros_lib/std_msgs/Time.h ****       this->data.sec |= ((uint32_t) (*(inbuffer + offset + 3))) << (8 * 3);
 120               		.loc 1 46 0
 121 0034 1396      		adiw r26,3
 122 0036 8C91      		ld r24,X
 123 0038 1397      		sbiw r26,3
 124 003a 782B      		or r23,r24
 125 003c 4283      		std Z+2,r20
 126 003e 5383      		std Z+3,r21
 127 0040 6483      		std Z+4,r22
 128 0042 7583      		std Z+5,r23
 129               	.LVL9:
  47:./ros_lib/std_msgs/Time.h ****       offset += sizeof(this->data.sec);
  48:./ros_lib/std_msgs/Time.h ****       this->data.nsec =  ((uint32_t) (*(inbuffer + offset)));
 130               		.loc 1 48 0
 131 0044 1496      		adiw r26,4
 132 0046 4C91      		ld r20,X
 133 0048 1497      		sbiw r26,4
 134 004a 50E0      		ldi r21,0
 135 004c 60E0      		ldi r22,0
 136 004e 70E0      		ldi r23,0
 137 0050 4683      		std Z+6,r20
 138 0052 5783      		std Z+7,r21
 139 0054 6087      		std Z+8,r22
 140 0056 7187      		std Z+9,r23
  49:./ros_lib/std_msgs/Time.h ****       this->data.nsec |= ((uint32_t) (*(inbuffer + offset + 1))) << (8 * 1);
 141               		.loc 1 49 0
 142 0058 1596      		adiw r26,5
 143 005a 8C91      		ld r24,X
 144 005c 1597      		sbiw r26,5
 145 005e 582B      		or r21,r24
 146 0060 4683      		std Z+6,r20
 147 0062 5783      		std Z+7,r21
 148 0064 6087      		std Z+8,r22
 149 0066 7187      		std Z+9,r23
  50:./ros_lib/std_msgs/Time.h ****       this->data.nsec |= ((uint32_t) (*(inbuffer + offset + 2))) << (8 * 2);
 150               		.loc 1 50 0
 151 0068 1696      		adiw r26,6
 152 006a 8C91      		ld r24,X
 153 006c 1697      		sbiw r26,6
 154 006e 682B      		or r22,r24
 155 0070 4683      		std Z+6,r20
 156 0072 5783      		std Z+7,r21
 157 0074 6087      		std Z+8,r22
 158 0076 7187      		std Z+9,r23
  51:./ros_lib/std_msgs/Time.h ****       this->data.nsec |= ((uint32_t) (*(inbuffer + offset + 3))) << (8 * 3);
 159               		.loc 1 51 0
 160 0078 1796      		adiw r26,7
 161 007a 8C91      		ld r24,X
 162 007c 782B      		or r23,r24
 163 007e 4683      		std Z+6,r20
 164 0080 5783      		std Z+7,r21
 165 0082 6087      		std Z+8,r22
 166 0084 7187      		std Z+9,r23
 167               	.LVL10:
  52:./ros_lib/std_msgs/Time.h ****       offset += sizeof(this->data.nsec);
  53:./ros_lib/std_msgs/Time.h ****      return offset;
  54:./ros_lib/std_msgs/Time.h ****     }
 168               		.loc 1 54 0
 169 0086 88E0      		ldi r24,lo8(8)
 170 0088 90E0      		ldi r25,0
 171 008a 0895      		ret
 172               		.cfi_endproc
 173               	.LFE34:
 175               		.section	.rodata.str1.1,"aMS",@progbits,1
 176               	.LC0:
 177 0000 7374 645F 		.string	"std_msgs/Time"
 177      6D73 6773 
 177      2F54 696D 
 177      6500 
 178               		.section	.text._ZN8std_msgs4Time7getTypeEv,"axG",@progbits,_ZN8std_msgs4Time7getTypeEv,comdat
 179               		.weak	_ZN8std_msgs4Time7getTypeEv
 181               	_ZN8std_msgs4Time7getTypeEv:
 182               	.LFB35:
  55:./ros_lib/std_msgs/Time.h **** 
  56:./ros_lib/std_msgs/Time.h ****     virtual const char * getType() override { return "std_msgs/Time"; };
 183               		.loc 1 56 0
 184               		.cfi_startproc
 185               	.LVL11:
 186               	/* prologue: function */
 187               	/* frame size = 0 */
 188               	/* stack size = 0 */
 189               	.L__stack_usage = 0
 190               		.loc 1 56 0
 191 0000 80E0      		ldi r24,lo8(.LC0)
 192 0002 90E0      		ldi r25,hi8(.LC0)
 193               	.LVL12:
 194 0004 0895      		ret
 195               		.cfi_endproc
 196               	.LFE35:
 198               		.section	.rodata.str1.1
 199               	.LC1:
 200 000e 6364 3731 		.string	"cd7166c74c552c311fbcc2fe5a7bc289"
 200      3636 6337 
 200      3463 3535 
 200      3263 3331 
 200      3166 6263 
 201               		.section	.text._ZN8std_msgs4Time6getMD5Ev,"axG",@progbits,_ZN8std_msgs4Time6getMD5Ev,comdat
 202               		.weak	_ZN8std_msgs4Time6getMD5Ev
 204               	_ZN8std_msgs4Time6getMD5Ev:
 205               	.LFB36:
  57:./ros_lib/std_msgs/Time.h ****     virtual const char * getMD5() override { return "cd7166c74c552c311fbcc2fe5a7bc289"; };
 206               		.loc 1 57 0
 207               		.cfi_startproc
 208               	.LVL13:
 209               	/* prologue: function */
 210               	/* frame size = 0 */
 211               	/* stack size = 0 */
 212               	.L__stack_usage = 0
 213               		.loc 1 57 0
 214 0000 80E0      		ldi r24,lo8(.LC1)
 215 0002 90E0      		ldi r25,hi8(.LC1)
 216               	.LVL14:
 217 0004 0895      		ret
 218               		.cfi_endproc
 219               	.LFE36:
 221               		.section	.rodata.str1.1
 222               	.LC2:
 223 002f 726F 7373 		.string	"rosserial_msgs/TopicInfo"
 223      6572 6961 
 223      6C5F 6D73 
 223      6773 2F54 
 223      6F70 6963 
 224               		.section	.text._ZN14rosserial_msgs9TopicInfo7getTypeEv,"axG",@progbits,_ZN14rosserial_msgs9TopicIn
 225               		.weak	_ZN14rosserial_msgs9TopicInfo7getTypeEv
 227               	_ZN14rosserial_msgs9TopicInfo7getTypeEv:
 228               	.LFB42:
 229               		.file 2 "./ros_lib/rosserial_msgs/TopicInfo.h"
   1:./ros_lib/rosserial_msgs/TopicInfo.h **** #ifndef _ROS_rosserial_msgs_TopicInfo_h
   2:./ros_lib/rosserial_msgs/TopicInfo.h **** #define _ROS_rosserial_msgs_TopicInfo_h
   3:./ros_lib/rosserial_msgs/TopicInfo.h **** 
   4:./ros_lib/rosserial_msgs/TopicInfo.h **** #include <stdint.h>
   5:./ros_lib/rosserial_msgs/TopicInfo.h **** #include <string.h>
   6:./ros_lib/rosserial_msgs/TopicInfo.h **** #include <stdlib.h>
   7:./ros_lib/rosserial_msgs/TopicInfo.h **** #include "ros/msg.h"
   8:./ros_lib/rosserial_msgs/TopicInfo.h **** 
   9:./ros_lib/rosserial_msgs/TopicInfo.h **** namespace rosserial_msgs
  10:./ros_lib/rosserial_msgs/TopicInfo.h **** {
  11:./ros_lib/rosserial_msgs/TopicInfo.h **** 
  12:./ros_lib/rosserial_msgs/TopicInfo.h ****   class TopicInfo : public ros::Msg
  13:./ros_lib/rosserial_msgs/TopicInfo.h ****   {
  14:./ros_lib/rosserial_msgs/TopicInfo.h ****     public:
  15:./ros_lib/rosserial_msgs/TopicInfo.h ****       typedef uint16_t _topic_id_type;
  16:./ros_lib/rosserial_msgs/TopicInfo.h ****       _topic_id_type topic_id;
  17:./ros_lib/rosserial_msgs/TopicInfo.h ****       typedef const char* _topic_name_type;
  18:./ros_lib/rosserial_msgs/TopicInfo.h ****       _topic_name_type topic_name;
  19:./ros_lib/rosserial_msgs/TopicInfo.h ****       typedef const char* _message_type_type;
  20:./ros_lib/rosserial_msgs/TopicInfo.h ****       _message_type_type message_type;
  21:./ros_lib/rosserial_msgs/TopicInfo.h ****       typedef const char* _md5sum_type;
  22:./ros_lib/rosserial_msgs/TopicInfo.h ****       _md5sum_type md5sum;
  23:./ros_lib/rosserial_msgs/TopicInfo.h ****       typedef int32_t _buffer_size_type;
  24:./ros_lib/rosserial_msgs/TopicInfo.h ****       _buffer_size_type buffer_size;
  25:./ros_lib/rosserial_msgs/TopicInfo.h ****       enum { ID_PUBLISHER = 0 };
  26:./ros_lib/rosserial_msgs/TopicInfo.h ****       enum { ID_SUBSCRIBER = 1 };
  27:./ros_lib/rosserial_msgs/TopicInfo.h ****       enum { ID_SERVICE_SERVER = 2 };
  28:./ros_lib/rosserial_msgs/TopicInfo.h ****       enum { ID_SERVICE_CLIENT = 4 };
  29:./ros_lib/rosserial_msgs/TopicInfo.h ****       enum { ID_PARAMETER_REQUEST = 6 };
  30:./ros_lib/rosserial_msgs/TopicInfo.h ****       enum { ID_LOG = 7 };
  31:./ros_lib/rosserial_msgs/TopicInfo.h ****       enum { ID_TIME = 10 };
  32:./ros_lib/rosserial_msgs/TopicInfo.h ****       enum { ID_TX_STOP = 11 };
  33:./ros_lib/rosserial_msgs/TopicInfo.h **** 
  34:./ros_lib/rosserial_msgs/TopicInfo.h ****     TopicInfo():
  35:./ros_lib/rosserial_msgs/TopicInfo.h ****       topic_id(0),
  36:./ros_lib/rosserial_msgs/TopicInfo.h ****       topic_name(""),
  37:./ros_lib/rosserial_msgs/TopicInfo.h ****       message_type(""),
  38:./ros_lib/rosserial_msgs/TopicInfo.h ****       md5sum(""),
  39:./ros_lib/rosserial_msgs/TopicInfo.h ****       buffer_size(0)
  40:./ros_lib/rosserial_msgs/TopicInfo.h ****     {
  41:./ros_lib/rosserial_msgs/TopicInfo.h ****     }
  42:./ros_lib/rosserial_msgs/TopicInfo.h **** 
  43:./ros_lib/rosserial_msgs/TopicInfo.h ****     virtual int serialize(unsigned char *outbuffer) const override
  44:./ros_lib/rosserial_msgs/TopicInfo.h ****     {
  45:./ros_lib/rosserial_msgs/TopicInfo.h ****       int offset = 0;
  46:./ros_lib/rosserial_msgs/TopicInfo.h ****       *(outbuffer + offset + 0) = (this->topic_id >> (8 * 0)) & 0xFF;
  47:./ros_lib/rosserial_msgs/TopicInfo.h ****       *(outbuffer + offset + 1) = (this->topic_id >> (8 * 1)) & 0xFF;
  48:./ros_lib/rosserial_msgs/TopicInfo.h ****       offset += sizeof(this->topic_id);
  49:./ros_lib/rosserial_msgs/TopicInfo.h ****       uint32_t length_topic_name = strlen(this->topic_name);
  50:./ros_lib/rosserial_msgs/TopicInfo.h ****       varToArr(outbuffer + offset, length_topic_name);
  51:./ros_lib/rosserial_msgs/TopicInfo.h ****       offset += 4;
  52:./ros_lib/rosserial_msgs/TopicInfo.h ****       memcpy(outbuffer + offset, this->topic_name, length_topic_name);
  53:./ros_lib/rosserial_msgs/TopicInfo.h ****       offset += length_topic_name;
  54:./ros_lib/rosserial_msgs/TopicInfo.h ****       uint32_t length_message_type = strlen(this->message_type);
  55:./ros_lib/rosserial_msgs/TopicInfo.h ****       varToArr(outbuffer + offset, length_message_type);
  56:./ros_lib/rosserial_msgs/TopicInfo.h ****       offset += 4;
  57:./ros_lib/rosserial_msgs/TopicInfo.h ****       memcpy(outbuffer + offset, this->message_type, length_message_type);
  58:./ros_lib/rosserial_msgs/TopicInfo.h ****       offset += length_message_type;
  59:./ros_lib/rosserial_msgs/TopicInfo.h ****       uint32_t length_md5sum = strlen(this->md5sum);
  60:./ros_lib/rosserial_msgs/TopicInfo.h ****       varToArr(outbuffer + offset, length_md5sum);
  61:./ros_lib/rosserial_msgs/TopicInfo.h ****       offset += 4;
  62:./ros_lib/rosserial_msgs/TopicInfo.h ****       memcpy(outbuffer + offset, this->md5sum, length_md5sum);
  63:./ros_lib/rosserial_msgs/TopicInfo.h ****       offset += length_md5sum;
  64:./ros_lib/rosserial_msgs/TopicInfo.h ****       union {
  65:./ros_lib/rosserial_msgs/TopicInfo.h ****         int32_t real;
  66:./ros_lib/rosserial_msgs/TopicInfo.h ****         uint32_t base;
  67:./ros_lib/rosserial_msgs/TopicInfo.h ****       } u_buffer_size;
  68:./ros_lib/rosserial_msgs/TopicInfo.h ****       u_buffer_size.real = this->buffer_size;
  69:./ros_lib/rosserial_msgs/TopicInfo.h ****       *(outbuffer + offset + 0) = (u_buffer_size.base >> (8 * 0)) & 0xFF;
  70:./ros_lib/rosserial_msgs/TopicInfo.h ****       *(outbuffer + offset + 1) = (u_buffer_size.base >> (8 * 1)) & 0xFF;
  71:./ros_lib/rosserial_msgs/TopicInfo.h ****       *(outbuffer + offset + 2) = (u_buffer_size.base >> (8 * 2)) & 0xFF;
  72:./ros_lib/rosserial_msgs/TopicInfo.h ****       *(outbuffer + offset + 3) = (u_buffer_size.base >> (8 * 3)) & 0xFF;
  73:./ros_lib/rosserial_msgs/TopicInfo.h ****       offset += sizeof(this->buffer_size);
  74:./ros_lib/rosserial_msgs/TopicInfo.h ****       return offset;
  75:./ros_lib/rosserial_msgs/TopicInfo.h ****     }
  76:./ros_lib/rosserial_msgs/TopicInfo.h **** 
  77:./ros_lib/rosserial_msgs/TopicInfo.h ****     virtual int deserialize(unsigned char *inbuffer) override
  78:./ros_lib/rosserial_msgs/TopicInfo.h ****     {
  79:./ros_lib/rosserial_msgs/TopicInfo.h ****       int offset = 0;
  80:./ros_lib/rosserial_msgs/TopicInfo.h ****       this->topic_id =  ((uint16_t) (*(inbuffer + offset)));
  81:./ros_lib/rosserial_msgs/TopicInfo.h ****       this->topic_id |= ((uint16_t) (*(inbuffer + offset + 1))) << (8 * 1);
  82:./ros_lib/rosserial_msgs/TopicInfo.h ****       offset += sizeof(this->topic_id);
  83:./ros_lib/rosserial_msgs/TopicInfo.h ****       uint32_t length_topic_name;
  84:./ros_lib/rosserial_msgs/TopicInfo.h ****       arrToVar(length_topic_name, (inbuffer + offset));
  85:./ros_lib/rosserial_msgs/TopicInfo.h ****       offset += 4;
  86:./ros_lib/rosserial_msgs/TopicInfo.h ****       for(unsigned int k= offset; k< offset+length_topic_name; ++k){
  87:./ros_lib/rosserial_msgs/TopicInfo.h ****           inbuffer[k-1]=inbuffer[k];
  88:./ros_lib/rosserial_msgs/TopicInfo.h ****       }
  89:./ros_lib/rosserial_msgs/TopicInfo.h ****       inbuffer[offset+length_topic_name-1]=0;
  90:./ros_lib/rosserial_msgs/TopicInfo.h ****       this->topic_name = (char *)(inbuffer + offset-1);
  91:./ros_lib/rosserial_msgs/TopicInfo.h ****       offset += length_topic_name;
  92:./ros_lib/rosserial_msgs/TopicInfo.h ****       uint32_t length_message_type;
  93:./ros_lib/rosserial_msgs/TopicInfo.h ****       arrToVar(length_message_type, (inbuffer + offset));
  94:./ros_lib/rosserial_msgs/TopicInfo.h ****       offset += 4;
  95:./ros_lib/rosserial_msgs/TopicInfo.h ****       for(unsigned int k= offset; k< offset+length_message_type; ++k){
  96:./ros_lib/rosserial_msgs/TopicInfo.h ****           inbuffer[k-1]=inbuffer[k];
  97:./ros_lib/rosserial_msgs/TopicInfo.h ****       }
  98:./ros_lib/rosserial_msgs/TopicInfo.h ****       inbuffer[offset+length_message_type-1]=0;
  99:./ros_lib/rosserial_msgs/TopicInfo.h ****       this->message_type = (char *)(inbuffer + offset-1);
 100:./ros_lib/rosserial_msgs/TopicInfo.h ****       offset += length_message_type;
 101:./ros_lib/rosserial_msgs/TopicInfo.h ****       uint32_t length_md5sum;
 102:./ros_lib/rosserial_msgs/TopicInfo.h ****       arrToVar(length_md5sum, (inbuffer + offset));
 103:./ros_lib/rosserial_msgs/TopicInfo.h ****       offset += 4;
 104:./ros_lib/rosserial_msgs/TopicInfo.h ****       for(unsigned int k= offset; k< offset+length_md5sum; ++k){
 105:./ros_lib/rosserial_msgs/TopicInfo.h ****           inbuffer[k-1]=inbuffer[k];
 106:./ros_lib/rosserial_msgs/TopicInfo.h ****       }
 107:./ros_lib/rosserial_msgs/TopicInfo.h ****       inbuffer[offset+length_md5sum-1]=0;
 108:./ros_lib/rosserial_msgs/TopicInfo.h ****       this->md5sum = (char *)(inbuffer + offset-1);
 109:./ros_lib/rosserial_msgs/TopicInfo.h ****       offset += length_md5sum;
 110:./ros_lib/rosserial_msgs/TopicInfo.h ****       union {
 111:./ros_lib/rosserial_msgs/TopicInfo.h ****         int32_t real;
 112:./ros_lib/rosserial_msgs/TopicInfo.h ****         uint32_t base;
 113:./ros_lib/rosserial_msgs/TopicInfo.h ****       } u_buffer_size;
 114:./ros_lib/rosserial_msgs/TopicInfo.h ****       u_buffer_size.base = 0;
 115:./ros_lib/rosserial_msgs/TopicInfo.h ****       u_buffer_size.base |= ((uint32_t) (*(inbuffer + offset + 0))) << (8 * 0);
 116:./ros_lib/rosserial_msgs/TopicInfo.h ****       u_buffer_size.base |= ((uint32_t) (*(inbuffer + offset + 1))) << (8 * 1);
 117:./ros_lib/rosserial_msgs/TopicInfo.h ****       u_buffer_size.base |= ((uint32_t) (*(inbuffer + offset + 2))) << (8 * 2);
 118:./ros_lib/rosserial_msgs/TopicInfo.h ****       u_buffer_size.base |= ((uint32_t) (*(inbuffer + offset + 3))) << (8 * 3);
 119:./ros_lib/rosserial_msgs/TopicInfo.h ****       this->buffer_size = u_buffer_size.real;
 120:./ros_lib/rosserial_msgs/TopicInfo.h ****       offset += sizeof(this->buffer_size);
 121:./ros_lib/rosserial_msgs/TopicInfo.h ****      return offset;
 122:./ros_lib/rosserial_msgs/TopicInfo.h ****     }
 123:./ros_lib/rosserial_msgs/TopicInfo.h **** 
 124:./ros_lib/rosserial_msgs/TopicInfo.h ****     virtual const char * getType() override { return "rosserial_msgs/TopicInfo"; };
 230               		.loc 2 124 0
 231               		.cfi_startproc
 232               	.LVL15:
 233               	/* prologue: function */
 234               	/* frame size = 0 */
 235               	/* stack size = 0 */
 236               	.L__stack_usage = 0
 237               		.loc 2 124 0
 238 0000 80E0      		ldi r24,lo8(.LC2)
 239 0002 90E0      		ldi r25,hi8(.LC2)
 240               	.LVL16:
 241 0004 0895      		ret
 242               		.cfi_endproc
 243               	.LFE42:
 245               		.section	.rodata.str1.1
 246               	.LC3:
 247 0048 3061 6435 		.string	"0ad51f88fc44892f8c10684077646005"
 247      3166 3838 
 247      6663 3434 
 247      3839 3266 
 247      3863 3130 
 248               		.section	.text._ZN14rosserial_msgs9TopicInfo6getMD5Ev,"axG",@progbits,_ZN14rosserial_msgs9TopicInf
 249               		.weak	_ZN14rosserial_msgs9TopicInfo6getMD5Ev
 251               	_ZN14rosserial_msgs9TopicInfo6getMD5Ev:
 252               	.LFB43:
 125:./ros_lib/rosserial_msgs/TopicInfo.h ****     virtual const char * getMD5() override { return "0ad51f88fc44892f8c10684077646005"; };
 253               		.loc 2 125 0
 254               		.cfi_startproc
 255               	.LVL17:
 256               	/* prologue: function */
 257               	/* frame size = 0 */
 258               	/* stack size = 0 */
 259               	.L__stack_usage = 0
 260               		.loc 2 125 0
 261 0000 80E0      		ldi r24,lo8(.LC3)
 262 0002 90E0      		ldi r25,hi8(.LC3)
 263               	.LVL18:
 264 0004 0895      		ret
 265               		.cfi_endproc
 266               	.LFE43:
 268               		.section	.rodata.str1.1
 269               	.LC4:
 270 0069 726F 7373 		.string	"rosserial_msgs/Log"
 270      6572 6961 
 270      6C5F 6D73 
 270      6773 2F4C 
 270      6F67 00
 271               		.section	.text._ZN14rosserial_msgs3Log7getTypeEv,"axG",@progbits,_ZN14rosserial_msgs3Log7getTypeEv
 272               		.weak	_ZN14rosserial_msgs3Log7getTypeEv
 274               	_ZN14rosserial_msgs3Log7getTypeEv:
 275               	.LFB49:
 276               		.file 3 "./ros_lib/rosserial_msgs/Log.h"
   1:./ros_lib/rosserial_msgs/Log.h **** #ifndef _ROS_rosserial_msgs_Log_h
   2:./ros_lib/rosserial_msgs/Log.h **** #define _ROS_rosserial_msgs_Log_h
   3:./ros_lib/rosserial_msgs/Log.h **** 
   4:./ros_lib/rosserial_msgs/Log.h **** #include <stdint.h>
   5:./ros_lib/rosserial_msgs/Log.h **** #include <string.h>
   6:./ros_lib/rosserial_msgs/Log.h **** #include <stdlib.h>
   7:./ros_lib/rosserial_msgs/Log.h **** #include "ros/msg.h"
   8:./ros_lib/rosserial_msgs/Log.h **** 
   9:./ros_lib/rosserial_msgs/Log.h **** namespace rosserial_msgs
  10:./ros_lib/rosserial_msgs/Log.h **** {
  11:./ros_lib/rosserial_msgs/Log.h **** 
  12:./ros_lib/rosserial_msgs/Log.h ****   class Log : public ros::Msg
  13:./ros_lib/rosserial_msgs/Log.h ****   {
  14:./ros_lib/rosserial_msgs/Log.h ****     public:
  15:./ros_lib/rosserial_msgs/Log.h ****       typedef uint8_t _level_type;
  16:./ros_lib/rosserial_msgs/Log.h ****       _level_type level;
  17:./ros_lib/rosserial_msgs/Log.h ****       typedef const char* _msg_type;
  18:./ros_lib/rosserial_msgs/Log.h ****       _msg_type msg;
  19:./ros_lib/rosserial_msgs/Log.h ****       enum { ROSDEBUG = 0 };
  20:./ros_lib/rosserial_msgs/Log.h ****       enum { INFO = 1 };
  21:./ros_lib/rosserial_msgs/Log.h ****       enum { WARN = 2 };
  22:./ros_lib/rosserial_msgs/Log.h ****       enum { ERROR = 3 };
  23:./ros_lib/rosserial_msgs/Log.h ****       enum { FATAL = 4 };
  24:./ros_lib/rosserial_msgs/Log.h **** 
  25:./ros_lib/rosserial_msgs/Log.h ****     Log():
  26:./ros_lib/rosserial_msgs/Log.h ****       level(0),
  27:./ros_lib/rosserial_msgs/Log.h ****       msg("")
  28:./ros_lib/rosserial_msgs/Log.h ****     {
  29:./ros_lib/rosserial_msgs/Log.h ****     }
  30:./ros_lib/rosserial_msgs/Log.h **** 
  31:./ros_lib/rosserial_msgs/Log.h ****     virtual int serialize(unsigned char *outbuffer) const override
  32:./ros_lib/rosserial_msgs/Log.h ****     {
  33:./ros_lib/rosserial_msgs/Log.h ****       int offset = 0;
  34:./ros_lib/rosserial_msgs/Log.h ****       *(outbuffer + offset + 0) = (this->level >> (8 * 0)) & 0xFF;
  35:./ros_lib/rosserial_msgs/Log.h ****       offset += sizeof(this->level);
  36:./ros_lib/rosserial_msgs/Log.h ****       uint32_t length_msg = strlen(this->msg);
  37:./ros_lib/rosserial_msgs/Log.h ****       varToArr(outbuffer + offset, length_msg);
  38:./ros_lib/rosserial_msgs/Log.h ****       offset += 4;
  39:./ros_lib/rosserial_msgs/Log.h ****       memcpy(outbuffer + offset, this->msg, length_msg);
  40:./ros_lib/rosserial_msgs/Log.h ****       offset += length_msg;
  41:./ros_lib/rosserial_msgs/Log.h ****       return offset;
  42:./ros_lib/rosserial_msgs/Log.h ****     }
  43:./ros_lib/rosserial_msgs/Log.h **** 
  44:./ros_lib/rosserial_msgs/Log.h ****     virtual int deserialize(unsigned char *inbuffer) override
  45:./ros_lib/rosserial_msgs/Log.h ****     {
  46:./ros_lib/rosserial_msgs/Log.h ****       int offset = 0;
  47:./ros_lib/rosserial_msgs/Log.h ****       this->level =  ((uint8_t) (*(inbuffer + offset)));
  48:./ros_lib/rosserial_msgs/Log.h ****       offset += sizeof(this->level);
  49:./ros_lib/rosserial_msgs/Log.h ****       uint32_t length_msg;
  50:./ros_lib/rosserial_msgs/Log.h ****       arrToVar(length_msg, (inbuffer + offset));
  51:./ros_lib/rosserial_msgs/Log.h ****       offset += 4;
  52:./ros_lib/rosserial_msgs/Log.h ****       for(unsigned int k= offset; k< offset+length_msg; ++k){
  53:./ros_lib/rosserial_msgs/Log.h ****           inbuffer[k-1]=inbuffer[k];
  54:./ros_lib/rosserial_msgs/Log.h ****       }
  55:./ros_lib/rosserial_msgs/Log.h ****       inbuffer[offset+length_msg-1]=0;
  56:./ros_lib/rosserial_msgs/Log.h ****       this->msg = (char *)(inbuffer + offset-1);
  57:./ros_lib/rosserial_msgs/Log.h ****       offset += length_msg;
  58:./ros_lib/rosserial_msgs/Log.h ****      return offset;
  59:./ros_lib/rosserial_msgs/Log.h ****     }
  60:./ros_lib/rosserial_msgs/Log.h **** 
  61:./ros_lib/rosserial_msgs/Log.h ****     virtual const char * getType() override { return "rosserial_msgs/Log"; };
 277               		.loc 3 61 0
 278               		.cfi_startproc
 279               	.LVL19:
 280               	/* prologue: function */
 281               	/* frame size = 0 */
 282               	/* stack size = 0 */
 283               	.L__stack_usage = 0
 284               		.loc 3 61 0
 285 0000 80E0      		ldi r24,lo8(.LC4)
 286 0002 90E0      		ldi r25,hi8(.LC4)
 287               	.LVL20:
 288 0004 0895      		ret
 289               		.cfi_endproc
 290               	.LFE49:
 292               		.section	.rodata.str1.1
 293               	.LC5:
 294 007c 3131 6162 		.string	"11abd731c25933261cd6183bd12d6295"
 294      6437 3331 
 294      6332 3539 
 294      3333 3236 
 294      3163 6436 
 295               		.section	.text._ZN14rosserial_msgs3Log6getMD5Ev,"axG",@progbits,_ZN14rosserial_msgs3Log6getMD5Ev,c
 296               		.weak	_ZN14rosserial_msgs3Log6getMD5Ev
 298               	_ZN14rosserial_msgs3Log6getMD5Ev:
 299               	.LFB50:
  62:./ros_lib/rosserial_msgs/Log.h ****     virtual const char * getMD5() override { return "11abd731c25933261cd6183bd12d6295"; };
 300               		.loc 3 62 0
 301               		.cfi_startproc
 302               	.LVL21:
 303               	/* prologue: function */
 304               	/* frame size = 0 */
 305               	/* stack size = 0 */
 306               	.L__stack_usage = 0
 307               		.loc 3 62 0
 308 0000 80E0      		ldi r24,lo8(.LC5)
 309 0002 90E0      		ldi r25,hi8(.LC5)
 310               	.LVL22:
 311 0004 0895      		ret
 312               		.cfi_endproc
 313               	.LFE50:
 315               		.section	.text._ZN14rosserial_msgs20RequestParamResponse7getTypeEv,"axG",@progbits,_ZN14rosserial_
 316               		.weak	_ZN14rosserial_msgs20RequestParamResponse7getTypeEv
 318               	_ZN14rosserial_msgs20RequestParamResponse7getTypeEv:
 319               	.LFB63:
 320               		.file 4 "./ros_lib/rosserial_msgs/RequestParam.h"
   1:./ros_lib/rosserial_msgs/RequestParam.h **** #ifndef _ROS_SERVICE_RequestParam_h
   2:./ros_lib/rosserial_msgs/RequestParam.h **** #define _ROS_SERVICE_RequestParam_h
   3:./ros_lib/rosserial_msgs/RequestParam.h **** #include <stdint.h>
   4:./ros_lib/rosserial_msgs/RequestParam.h **** #include <string.h>
   5:./ros_lib/rosserial_msgs/RequestParam.h **** #include <stdlib.h>
   6:./ros_lib/rosserial_msgs/RequestParam.h **** #include "ros/msg.h"
   7:./ros_lib/rosserial_msgs/RequestParam.h **** 
   8:./ros_lib/rosserial_msgs/RequestParam.h **** namespace rosserial_msgs
   9:./ros_lib/rosserial_msgs/RequestParam.h **** {
  10:./ros_lib/rosserial_msgs/RequestParam.h **** 
  11:./ros_lib/rosserial_msgs/RequestParam.h **** static const char REQUESTPARAM[] = "rosserial_msgs/RequestParam";
  12:./ros_lib/rosserial_msgs/RequestParam.h **** 
  13:./ros_lib/rosserial_msgs/RequestParam.h ****   class RequestParamRequest : public ros::Msg
  14:./ros_lib/rosserial_msgs/RequestParam.h ****   {
  15:./ros_lib/rosserial_msgs/RequestParam.h ****     public:
  16:./ros_lib/rosserial_msgs/RequestParam.h ****       typedef const char* _name_type;
  17:./ros_lib/rosserial_msgs/RequestParam.h ****       _name_type name;
  18:./ros_lib/rosserial_msgs/RequestParam.h **** 
  19:./ros_lib/rosserial_msgs/RequestParam.h ****     RequestParamRequest():
  20:./ros_lib/rosserial_msgs/RequestParam.h ****       name("")
  21:./ros_lib/rosserial_msgs/RequestParam.h ****     {
  22:./ros_lib/rosserial_msgs/RequestParam.h ****     }
  23:./ros_lib/rosserial_msgs/RequestParam.h **** 
  24:./ros_lib/rosserial_msgs/RequestParam.h ****     virtual int serialize(unsigned char *outbuffer) const override
  25:./ros_lib/rosserial_msgs/RequestParam.h ****     {
  26:./ros_lib/rosserial_msgs/RequestParam.h ****       int offset = 0;
  27:./ros_lib/rosserial_msgs/RequestParam.h ****       uint32_t length_name = strlen(this->name);
  28:./ros_lib/rosserial_msgs/RequestParam.h ****       varToArr(outbuffer + offset, length_name);
  29:./ros_lib/rosserial_msgs/RequestParam.h ****       offset += 4;
  30:./ros_lib/rosserial_msgs/RequestParam.h ****       memcpy(outbuffer + offset, this->name, length_name);
  31:./ros_lib/rosserial_msgs/RequestParam.h ****       offset += length_name;
  32:./ros_lib/rosserial_msgs/RequestParam.h ****       return offset;
  33:./ros_lib/rosserial_msgs/RequestParam.h ****     }
  34:./ros_lib/rosserial_msgs/RequestParam.h **** 
  35:./ros_lib/rosserial_msgs/RequestParam.h ****     virtual int deserialize(unsigned char *inbuffer) override
  36:./ros_lib/rosserial_msgs/RequestParam.h ****     {
  37:./ros_lib/rosserial_msgs/RequestParam.h ****       int offset = 0;
  38:./ros_lib/rosserial_msgs/RequestParam.h ****       uint32_t length_name;
  39:./ros_lib/rosserial_msgs/RequestParam.h ****       arrToVar(length_name, (inbuffer + offset));
  40:./ros_lib/rosserial_msgs/RequestParam.h ****       offset += 4;
  41:./ros_lib/rosserial_msgs/RequestParam.h ****       for(unsigned int k= offset; k< offset+length_name; ++k){
  42:./ros_lib/rosserial_msgs/RequestParam.h ****           inbuffer[k-1]=inbuffer[k];
  43:./ros_lib/rosserial_msgs/RequestParam.h ****       }
  44:./ros_lib/rosserial_msgs/RequestParam.h ****       inbuffer[offset+length_name-1]=0;
  45:./ros_lib/rosserial_msgs/RequestParam.h ****       this->name = (char *)(inbuffer + offset-1);
  46:./ros_lib/rosserial_msgs/RequestParam.h ****       offset += length_name;
  47:./ros_lib/rosserial_msgs/RequestParam.h ****      return offset;
  48:./ros_lib/rosserial_msgs/RequestParam.h ****     }
  49:./ros_lib/rosserial_msgs/RequestParam.h **** 
  50:./ros_lib/rosserial_msgs/RequestParam.h ****     virtual const char * getType() override { return REQUESTPARAM; };
  51:./ros_lib/rosserial_msgs/RequestParam.h ****     virtual const char * getMD5() override { return "c1f3d28f1b044c871e6eff2e9fc3c667"; };
  52:./ros_lib/rosserial_msgs/RequestParam.h **** 
  53:./ros_lib/rosserial_msgs/RequestParam.h ****   };
  54:./ros_lib/rosserial_msgs/RequestParam.h **** 
  55:./ros_lib/rosserial_msgs/RequestParam.h ****   class RequestParamResponse : public ros::Msg
  56:./ros_lib/rosserial_msgs/RequestParam.h ****   {
  57:./ros_lib/rosserial_msgs/RequestParam.h ****     public:
  58:./ros_lib/rosserial_msgs/RequestParam.h ****       uint32_t ints_length;
  59:./ros_lib/rosserial_msgs/RequestParam.h ****       typedef int32_t _ints_type;
  60:./ros_lib/rosserial_msgs/RequestParam.h ****       _ints_type st_ints;
  61:./ros_lib/rosserial_msgs/RequestParam.h ****       _ints_type * ints;
  62:./ros_lib/rosserial_msgs/RequestParam.h ****       uint32_t floats_length;
  63:./ros_lib/rosserial_msgs/RequestParam.h ****       typedef float _floats_type;
  64:./ros_lib/rosserial_msgs/RequestParam.h ****       _floats_type st_floats;
  65:./ros_lib/rosserial_msgs/RequestParam.h ****       _floats_type * floats;
  66:./ros_lib/rosserial_msgs/RequestParam.h ****       uint32_t strings_length;
  67:./ros_lib/rosserial_msgs/RequestParam.h ****       typedef char* _strings_type;
  68:./ros_lib/rosserial_msgs/RequestParam.h ****       _strings_type st_strings;
  69:./ros_lib/rosserial_msgs/RequestParam.h ****       _strings_type * strings;
  70:./ros_lib/rosserial_msgs/RequestParam.h **** 
  71:./ros_lib/rosserial_msgs/RequestParam.h ****     RequestParamResponse():
  72:./ros_lib/rosserial_msgs/RequestParam.h ****       ints_length(0), st_ints(), ints(nullptr),
  73:./ros_lib/rosserial_msgs/RequestParam.h ****       floats_length(0), st_floats(), floats(nullptr),
  74:./ros_lib/rosserial_msgs/RequestParam.h ****       strings_length(0), st_strings(), strings(nullptr)
  75:./ros_lib/rosserial_msgs/RequestParam.h ****     {
  76:./ros_lib/rosserial_msgs/RequestParam.h ****     }
  77:./ros_lib/rosserial_msgs/RequestParam.h **** 
  78:./ros_lib/rosserial_msgs/RequestParam.h ****     virtual int serialize(unsigned char *outbuffer) const override
  79:./ros_lib/rosserial_msgs/RequestParam.h ****     {
  80:./ros_lib/rosserial_msgs/RequestParam.h ****       int offset = 0;
  81:./ros_lib/rosserial_msgs/RequestParam.h ****       *(outbuffer + offset + 0) = (this->ints_length >> (8 * 0)) & 0xFF;
  82:./ros_lib/rosserial_msgs/RequestParam.h ****       *(outbuffer + offset + 1) = (this->ints_length >> (8 * 1)) & 0xFF;
  83:./ros_lib/rosserial_msgs/RequestParam.h ****       *(outbuffer + offset + 2) = (this->ints_length >> (8 * 2)) & 0xFF;
  84:./ros_lib/rosserial_msgs/RequestParam.h ****       *(outbuffer + offset + 3) = (this->ints_length >> (8 * 3)) & 0xFF;
  85:./ros_lib/rosserial_msgs/RequestParam.h ****       offset += sizeof(this->ints_length);
  86:./ros_lib/rosserial_msgs/RequestParam.h ****       for( uint32_t i = 0; i < ints_length; i++){
  87:./ros_lib/rosserial_msgs/RequestParam.h ****       union {
  88:./ros_lib/rosserial_msgs/RequestParam.h ****         int32_t real;
  89:./ros_lib/rosserial_msgs/RequestParam.h ****         uint32_t base;
  90:./ros_lib/rosserial_msgs/RequestParam.h ****       } u_intsi;
  91:./ros_lib/rosserial_msgs/RequestParam.h ****       u_intsi.real = this->ints[i];
  92:./ros_lib/rosserial_msgs/RequestParam.h ****       *(outbuffer + offset + 0) = (u_intsi.base >> (8 * 0)) & 0xFF;
  93:./ros_lib/rosserial_msgs/RequestParam.h ****       *(outbuffer + offset + 1) = (u_intsi.base >> (8 * 1)) & 0xFF;
  94:./ros_lib/rosserial_msgs/RequestParam.h ****       *(outbuffer + offset + 2) = (u_intsi.base >> (8 * 2)) & 0xFF;
  95:./ros_lib/rosserial_msgs/RequestParam.h ****       *(outbuffer + offset + 3) = (u_intsi.base >> (8 * 3)) & 0xFF;
  96:./ros_lib/rosserial_msgs/RequestParam.h ****       offset += sizeof(this->ints[i]);
  97:./ros_lib/rosserial_msgs/RequestParam.h ****       }
  98:./ros_lib/rosserial_msgs/RequestParam.h ****       *(outbuffer + offset + 0) = (this->floats_length >> (8 * 0)) & 0xFF;
  99:./ros_lib/rosserial_msgs/RequestParam.h ****       *(outbuffer + offset + 1) = (this->floats_length >> (8 * 1)) & 0xFF;
 100:./ros_lib/rosserial_msgs/RequestParam.h ****       *(outbuffer + offset + 2) = (this->floats_length >> (8 * 2)) & 0xFF;
 101:./ros_lib/rosserial_msgs/RequestParam.h ****       *(outbuffer + offset + 3) = (this->floats_length >> (8 * 3)) & 0xFF;
 102:./ros_lib/rosserial_msgs/RequestParam.h ****       offset += sizeof(this->floats_length);
 103:./ros_lib/rosserial_msgs/RequestParam.h ****       for( uint32_t i = 0; i < floats_length; i++){
 104:./ros_lib/rosserial_msgs/RequestParam.h ****       union {
 105:./ros_lib/rosserial_msgs/RequestParam.h ****         float real;
 106:./ros_lib/rosserial_msgs/RequestParam.h ****         uint32_t base;
 107:./ros_lib/rosserial_msgs/RequestParam.h ****       } u_floatsi;
 108:./ros_lib/rosserial_msgs/RequestParam.h ****       u_floatsi.real = this->floats[i];
 109:./ros_lib/rosserial_msgs/RequestParam.h ****       *(outbuffer + offset + 0) = (u_floatsi.base >> (8 * 0)) & 0xFF;
 110:./ros_lib/rosserial_msgs/RequestParam.h ****       *(outbuffer + offset + 1) = (u_floatsi.base >> (8 * 1)) & 0xFF;
 111:./ros_lib/rosserial_msgs/RequestParam.h ****       *(outbuffer + offset + 2) = (u_floatsi.base >> (8 * 2)) & 0xFF;
 112:./ros_lib/rosserial_msgs/RequestParam.h ****       *(outbuffer + offset + 3) = (u_floatsi.base >> (8 * 3)) & 0xFF;
 113:./ros_lib/rosserial_msgs/RequestParam.h ****       offset += sizeof(this->floats[i]);
 114:./ros_lib/rosserial_msgs/RequestParam.h ****       }
 115:./ros_lib/rosserial_msgs/RequestParam.h ****       *(outbuffer + offset + 0) = (this->strings_length >> (8 * 0)) & 0xFF;
 116:./ros_lib/rosserial_msgs/RequestParam.h ****       *(outbuffer + offset + 1) = (this->strings_length >> (8 * 1)) & 0xFF;
 117:./ros_lib/rosserial_msgs/RequestParam.h ****       *(outbuffer + offset + 2) = (this->strings_length >> (8 * 2)) & 0xFF;
 118:./ros_lib/rosserial_msgs/RequestParam.h ****       *(outbuffer + offset + 3) = (this->strings_length >> (8 * 3)) & 0xFF;
 119:./ros_lib/rosserial_msgs/RequestParam.h ****       offset += sizeof(this->strings_length);
 120:./ros_lib/rosserial_msgs/RequestParam.h ****       for( uint32_t i = 0; i < strings_length; i++){
 121:./ros_lib/rosserial_msgs/RequestParam.h ****       uint32_t length_stringsi = strlen(this->strings[i]);
 122:./ros_lib/rosserial_msgs/RequestParam.h ****       varToArr(outbuffer + offset, length_stringsi);
 123:./ros_lib/rosserial_msgs/RequestParam.h ****       offset += 4;
 124:./ros_lib/rosserial_msgs/RequestParam.h ****       memcpy(outbuffer + offset, this->strings[i], length_stringsi);
 125:./ros_lib/rosserial_msgs/RequestParam.h ****       offset += length_stringsi;
 126:./ros_lib/rosserial_msgs/RequestParam.h ****       }
 127:./ros_lib/rosserial_msgs/RequestParam.h ****       return offset;
 128:./ros_lib/rosserial_msgs/RequestParam.h ****     }
 129:./ros_lib/rosserial_msgs/RequestParam.h **** 
 130:./ros_lib/rosserial_msgs/RequestParam.h ****     virtual int deserialize(unsigned char *inbuffer) override
 131:./ros_lib/rosserial_msgs/RequestParam.h ****     {
 132:./ros_lib/rosserial_msgs/RequestParam.h ****       int offset = 0;
 133:./ros_lib/rosserial_msgs/RequestParam.h ****       uint32_t ints_lengthT = ((uint32_t) (*(inbuffer + offset))); 
 134:./ros_lib/rosserial_msgs/RequestParam.h ****       ints_lengthT |= ((uint32_t) (*(inbuffer + offset + 1))) << (8 * 1); 
 135:./ros_lib/rosserial_msgs/RequestParam.h ****       ints_lengthT |= ((uint32_t) (*(inbuffer + offset + 2))) << (8 * 2); 
 136:./ros_lib/rosserial_msgs/RequestParam.h ****       ints_lengthT |= ((uint32_t) (*(inbuffer + offset + 3))) << (8 * 3); 
 137:./ros_lib/rosserial_msgs/RequestParam.h ****       offset += sizeof(this->ints_length);
 138:./ros_lib/rosserial_msgs/RequestParam.h ****       if(ints_lengthT > ints_length)
 139:./ros_lib/rosserial_msgs/RequestParam.h ****         this->ints = (int32_t*)realloc(this->ints, ints_lengthT * sizeof(int32_t));
 140:./ros_lib/rosserial_msgs/RequestParam.h ****       ints_length = ints_lengthT;
 141:./ros_lib/rosserial_msgs/RequestParam.h ****       for( uint32_t i = 0; i < ints_length; i++){
 142:./ros_lib/rosserial_msgs/RequestParam.h ****       union {
 143:./ros_lib/rosserial_msgs/RequestParam.h ****         int32_t real;
 144:./ros_lib/rosserial_msgs/RequestParam.h ****         uint32_t base;
 145:./ros_lib/rosserial_msgs/RequestParam.h ****       } u_st_ints;
 146:./ros_lib/rosserial_msgs/RequestParam.h ****       u_st_ints.base = 0;
 147:./ros_lib/rosserial_msgs/RequestParam.h ****       u_st_ints.base |= ((uint32_t) (*(inbuffer + offset + 0))) << (8 * 0);
 148:./ros_lib/rosserial_msgs/RequestParam.h ****       u_st_ints.base |= ((uint32_t) (*(inbuffer + offset + 1))) << (8 * 1);
 149:./ros_lib/rosserial_msgs/RequestParam.h ****       u_st_ints.base |= ((uint32_t) (*(inbuffer + offset + 2))) << (8 * 2);
 150:./ros_lib/rosserial_msgs/RequestParam.h ****       u_st_ints.base |= ((uint32_t) (*(inbuffer + offset + 3))) << (8 * 3);
 151:./ros_lib/rosserial_msgs/RequestParam.h ****       this->st_ints = u_st_ints.real;
 152:./ros_lib/rosserial_msgs/RequestParam.h ****       offset += sizeof(this->st_ints);
 153:./ros_lib/rosserial_msgs/RequestParam.h ****         memcpy( &(this->ints[i]), &(this->st_ints), sizeof(int32_t));
 154:./ros_lib/rosserial_msgs/RequestParam.h ****       }
 155:./ros_lib/rosserial_msgs/RequestParam.h ****       uint32_t floats_lengthT = ((uint32_t) (*(inbuffer + offset))); 
 156:./ros_lib/rosserial_msgs/RequestParam.h ****       floats_lengthT |= ((uint32_t) (*(inbuffer + offset + 1))) << (8 * 1); 
 157:./ros_lib/rosserial_msgs/RequestParam.h ****       floats_lengthT |= ((uint32_t) (*(inbuffer + offset + 2))) << (8 * 2); 
 158:./ros_lib/rosserial_msgs/RequestParam.h ****       floats_lengthT |= ((uint32_t) (*(inbuffer + offset + 3))) << (8 * 3); 
 159:./ros_lib/rosserial_msgs/RequestParam.h ****       offset += sizeof(this->floats_length);
 160:./ros_lib/rosserial_msgs/RequestParam.h ****       if(floats_lengthT > floats_length)
 161:./ros_lib/rosserial_msgs/RequestParam.h ****         this->floats = (float*)realloc(this->floats, floats_lengthT * sizeof(float));
 162:./ros_lib/rosserial_msgs/RequestParam.h ****       floats_length = floats_lengthT;
 163:./ros_lib/rosserial_msgs/RequestParam.h ****       for( uint32_t i = 0; i < floats_length; i++){
 164:./ros_lib/rosserial_msgs/RequestParam.h ****       union {
 165:./ros_lib/rosserial_msgs/RequestParam.h ****         float real;
 166:./ros_lib/rosserial_msgs/RequestParam.h ****         uint32_t base;
 167:./ros_lib/rosserial_msgs/RequestParam.h ****       } u_st_floats;
 168:./ros_lib/rosserial_msgs/RequestParam.h ****       u_st_floats.base = 0;
 169:./ros_lib/rosserial_msgs/RequestParam.h ****       u_st_floats.base |= ((uint32_t) (*(inbuffer + offset + 0))) << (8 * 0);
 170:./ros_lib/rosserial_msgs/RequestParam.h ****       u_st_floats.base |= ((uint32_t) (*(inbuffer + offset + 1))) << (8 * 1);
 171:./ros_lib/rosserial_msgs/RequestParam.h ****       u_st_floats.base |= ((uint32_t) (*(inbuffer + offset + 2))) << (8 * 2);
 172:./ros_lib/rosserial_msgs/RequestParam.h ****       u_st_floats.base |= ((uint32_t) (*(inbuffer + offset + 3))) << (8 * 3);
 173:./ros_lib/rosserial_msgs/RequestParam.h ****       this->st_floats = u_st_floats.real;
 174:./ros_lib/rosserial_msgs/RequestParam.h ****       offset += sizeof(this->st_floats);
 175:./ros_lib/rosserial_msgs/RequestParam.h ****         memcpy( &(this->floats[i]), &(this->st_floats), sizeof(float));
 176:./ros_lib/rosserial_msgs/RequestParam.h ****       }
 177:./ros_lib/rosserial_msgs/RequestParam.h ****       uint32_t strings_lengthT = ((uint32_t) (*(inbuffer + offset))); 
 178:./ros_lib/rosserial_msgs/RequestParam.h ****       strings_lengthT |= ((uint32_t) (*(inbuffer + offset + 1))) << (8 * 1); 
 179:./ros_lib/rosserial_msgs/RequestParam.h ****       strings_lengthT |= ((uint32_t) (*(inbuffer + offset + 2))) << (8 * 2); 
 180:./ros_lib/rosserial_msgs/RequestParam.h ****       strings_lengthT |= ((uint32_t) (*(inbuffer + offset + 3))) << (8 * 3); 
 181:./ros_lib/rosserial_msgs/RequestParam.h ****       offset += sizeof(this->strings_length);
 182:./ros_lib/rosserial_msgs/RequestParam.h ****       if(strings_lengthT > strings_length)
 183:./ros_lib/rosserial_msgs/RequestParam.h ****         this->strings = (char**)realloc(this->strings, strings_lengthT * sizeof(char*));
 184:./ros_lib/rosserial_msgs/RequestParam.h ****       strings_length = strings_lengthT;
 185:./ros_lib/rosserial_msgs/RequestParam.h ****       for( uint32_t i = 0; i < strings_length; i++){
 186:./ros_lib/rosserial_msgs/RequestParam.h ****       uint32_t length_st_strings;
 187:./ros_lib/rosserial_msgs/RequestParam.h ****       arrToVar(length_st_strings, (inbuffer + offset));
 188:./ros_lib/rosserial_msgs/RequestParam.h ****       offset += 4;
 189:./ros_lib/rosserial_msgs/RequestParam.h ****       for(unsigned int k= offset; k< offset+length_st_strings; ++k){
 190:./ros_lib/rosserial_msgs/RequestParam.h ****           inbuffer[k-1]=inbuffer[k];
 191:./ros_lib/rosserial_msgs/RequestParam.h ****       }
 192:./ros_lib/rosserial_msgs/RequestParam.h ****       inbuffer[offset+length_st_strings-1]=0;
 193:./ros_lib/rosserial_msgs/RequestParam.h ****       this->st_strings = (char *)(inbuffer + offset-1);
 194:./ros_lib/rosserial_msgs/RequestParam.h ****       offset += length_st_strings;
 195:./ros_lib/rosserial_msgs/RequestParam.h ****         memcpy( &(this->strings[i]), &(this->st_strings), sizeof(char*));
 196:./ros_lib/rosserial_msgs/RequestParam.h ****       }
 197:./ros_lib/rosserial_msgs/RequestParam.h ****      return offset;
 198:./ros_lib/rosserial_msgs/RequestParam.h ****     }
 199:./ros_lib/rosserial_msgs/RequestParam.h **** 
 200:./ros_lib/rosserial_msgs/RequestParam.h ****     virtual const char * getType() override { return REQUESTPARAM; };
 321               		.loc 4 200 0
 322               		.cfi_startproc
 323               	.LVL23:
 324               	/* prologue: function */
 325               	/* frame size = 0 */
 326               	/* stack size = 0 */
 327               	.L__stack_usage = 0
 328               		.loc 4 200 0
 329 0000 80E0      		ldi r24,lo8(_ZN14rosserial_msgsL12REQUESTPARAME)
 330 0002 90E0      		ldi r25,hi8(_ZN14rosserial_msgsL12REQUESTPARAME)
 331               	.LVL24:
 332 0004 0895      		ret
 333               		.cfi_endproc
 334               	.LFE63:
 336               		.section	.rodata.str1.1
 337               	.LC6:
 338 009d 3966 3065 		.string	"9f0e98bda65981986ddf53afa7a40e49"
 338      3938 6264 
 338      6136 3539 
 338      3831 3938 
 338      3664 6466 
 339               		.section	.text._ZN14rosserial_msgs20RequestParamResponse6getMD5Ev,"axG",@progbits,_ZN14rosserial_m
 340               		.weak	_ZN14rosserial_msgs20RequestParamResponse6getMD5Ev
 342               	_ZN14rosserial_msgs20RequestParamResponse6getMD5Ev:
 343               	.LFB64:
 201:./ros_lib/rosserial_msgs/RequestParam.h ****     virtual const char * getMD5() override { return "9f0e98bda65981986ddf53afa7a40e49"; };
 344               		.loc 4 201 0
 345               		.cfi_startproc
 346               	.LVL25:
 347               	/* prologue: function */
 348               	/* frame size = 0 */
 349               	/* stack size = 0 */
 350               	.L__stack_usage = 0
 351               		.loc 4 201 0
 352 0000 80E0      		ldi r24,lo8(.LC6)
 353 0002 90E0      		ldi r25,hi8(.LC6)
 354               	.LVL26:
 355 0004 0895      		ret
 356               		.cfi_endproc
 357               	.LFE64:
 359               		.section	.text._ZNK10kitty_msgs10KittyState9serializeEPh,"axG",@progbits,_ZNK10kitty_msgs10KittySt
 360               		.weak	_ZNK10kitty_msgs10KittyState9serializeEPh
 362               	_ZNK10kitty_msgs10KittyState9serializeEPh:
 363               	.LFB135:
 364               		.file 5 "./ros_lib/kitty_msgs/KittyState.h"
   1:./ros_lib/kitty_msgs/KittyState.h **** #ifndef _ROS_kitty_msgs_KittyState_h
   2:./ros_lib/kitty_msgs/KittyState.h **** #define _ROS_kitty_msgs_KittyState_h
   3:./ros_lib/kitty_msgs/KittyState.h **** 
   4:./ros_lib/kitty_msgs/KittyState.h **** #include <stdint.h>
   5:./ros_lib/kitty_msgs/KittyState.h **** #include <string.h>
   6:./ros_lib/kitty_msgs/KittyState.h **** #include <stdlib.h>
   7:./ros_lib/kitty_msgs/KittyState.h **** #include "ros/msg.h"
   8:./ros_lib/kitty_msgs/KittyState.h **** #include "ros/time.h"
   9:./ros_lib/kitty_msgs/KittyState.h **** 
  10:./ros_lib/kitty_msgs/KittyState.h **** namespace kitty_msgs
  11:./ros_lib/kitty_msgs/KittyState.h **** {
  12:./ros_lib/kitty_msgs/KittyState.h **** 
  13:./ros_lib/kitty_msgs/KittyState.h ****   class KittyState : public ros::Msg
  14:./ros_lib/kitty_msgs/KittyState.h ****   {
  15:./ros_lib/kitty_msgs/KittyState.h ****     public:
  16:./ros_lib/kitty_msgs/KittyState.h ****       typedef ros::Time _stamp_type;
  17:./ros_lib/kitty_msgs/KittyState.h ****       _stamp_type stamp;
  18:./ros_lib/kitty_msgs/KittyState.h ****       typedef float _rotation_speed_type;
  19:./ros_lib/kitty_msgs/KittyState.h ****       _rotation_speed_type rotation_speed;
  20:./ros_lib/kitty_msgs/KittyState.h ****       typedef float _angle_steering_type;
  21:./ros_lib/kitty_msgs/KittyState.h ****       _angle_steering_type angle_steering;
  22:./ros_lib/kitty_msgs/KittyState.h **** 
  23:./ros_lib/kitty_msgs/KittyState.h ****     KittyState():
  24:./ros_lib/kitty_msgs/KittyState.h ****       stamp(),
  25:./ros_lib/kitty_msgs/KittyState.h ****       rotation_speed(0),
  26:./ros_lib/kitty_msgs/KittyState.h ****       angle_steering(0)
  27:./ros_lib/kitty_msgs/KittyState.h ****     {
  28:./ros_lib/kitty_msgs/KittyState.h ****     }
  29:./ros_lib/kitty_msgs/KittyState.h **** 
  30:./ros_lib/kitty_msgs/KittyState.h ****     virtual int serialize(unsigned char *outbuffer) const override
 365               		.loc 5 30 0
 366               		.cfi_startproc
 367               	.LVL27:
 368               	/* prologue: function */
 369               	/* frame size = 0 */
 370               	/* stack size = 0 */
 371               	.L__stack_usage = 0
 372 0000 DC01      		movw r26,r24
 373 0002 FB01      		movw r30,r22
 374               	.LVL28:
  31:./ros_lib/kitty_msgs/KittyState.h ****     {
  32:./ros_lib/kitty_msgs/KittyState.h ****       int offset = 0;
  33:./ros_lib/kitty_msgs/KittyState.h ****       *(outbuffer + offset + 0) = (this->stamp.sec >> (8 * 0)) & 0xFF;
 375               		.loc 5 33 0
 376 0004 1296      		adiw r26,2
 377 0006 8C91      		ld r24,X
 378 0008 1297      		sbiw r26,2
 379               	.LVL29:
 380 000a 8083      		st Z,r24
  34:./ros_lib/kitty_msgs/KittyState.h ****       *(outbuffer + offset + 1) = (this->stamp.sec >> (8 * 1)) & 0xFF;
 381               		.loc 5 34 0
 382 000c 1396      		adiw r26,3
 383 000e 8C91      		ld r24,X
 384 0010 1397      		sbiw r26,3
 385 0012 8183      		std Z+1,r24
  35:./ros_lib/kitty_msgs/KittyState.h ****       *(outbuffer + offset + 2) = (this->stamp.sec >> (8 * 2)) & 0xFF;
 386               		.loc 5 35 0
 387 0014 1496      		adiw r26,4
 388 0016 8C91      		ld r24,X
 389 0018 1497      		sbiw r26,4
 390 001a 8283      		std Z+2,r24
  36:./ros_lib/kitty_msgs/KittyState.h ****       *(outbuffer + offset + 3) = (this->stamp.sec >> (8 * 3)) & 0xFF;
 391               		.loc 5 36 0
 392 001c 1596      		adiw r26,5
 393 001e 8C91      		ld r24,X
 394 0020 1597      		sbiw r26,5
 395 0022 8383      		std Z+3,r24
 396               	.LVL30:
  37:./ros_lib/kitty_msgs/KittyState.h ****       offset += sizeof(this->stamp.sec);
  38:./ros_lib/kitty_msgs/KittyState.h ****       *(outbuffer + offset + 0) = (this->stamp.nsec >> (8 * 0)) & 0xFF;
 397               		.loc 5 38 0
 398 0024 1696      		adiw r26,6
 399 0026 8C91      		ld r24,X
 400 0028 1697      		sbiw r26,6
 401 002a 8483      		std Z+4,r24
  39:./ros_lib/kitty_msgs/KittyState.h ****       *(outbuffer + offset + 1) = (this->stamp.nsec >> (8 * 1)) & 0xFF;
 402               		.loc 5 39 0
 403 002c 1796      		adiw r26,7
 404 002e 8C91      		ld r24,X
 405 0030 1797      		sbiw r26,7
 406 0032 8583      		std Z+5,r24
  40:./ros_lib/kitty_msgs/KittyState.h ****       *(outbuffer + offset + 2) = (this->stamp.nsec >> (8 * 2)) & 0xFF;
 407               		.loc 5 40 0
 408 0034 1896      		adiw r26,8
 409 0036 8C91      		ld r24,X
 410 0038 1897      		sbiw r26,8
 411 003a 8683      		std Z+6,r24
  41:./ros_lib/kitty_msgs/KittyState.h ****       *(outbuffer + offset + 3) = (this->stamp.nsec >> (8 * 3)) & 0xFF;
 412               		.loc 5 41 0
 413 003c 1996      		adiw r26,9
 414 003e 8C91      		ld r24,X
 415 0040 1997      		sbiw r26,9
 416 0042 8783      		std Z+7,r24
 417               	.LVL31:
  42:./ros_lib/kitty_msgs/KittyState.h ****       offset += sizeof(this->stamp.nsec);
  43:./ros_lib/kitty_msgs/KittyState.h ****       union {
  44:./ros_lib/kitty_msgs/KittyState.h ****         float real;
  45:./ros_lib/kitty_msgs/KittyState.h ****         uint32_t base;
  46:./ros_lib/kitty_msgs/KittyState.h ****       } u_rotation_speed;
  47:./ros_lib/kitty_msgs/KittyState.h ****       u_rotation_speed.real = this->rotation_speed;
  48:./ros_lib/kitty_msgs/KittyState.h ****       *(outbuffer + offset + 0) = (u_rotation_speed.base >> (8 * 0)) & 0xFF;
 418               		.loc 5 48 0
 419 0044 1A96      		adiw r26,10
 420 0046 3C91      		ld r19,X
 421 0048 1A97      		sbiw r26,10
 422 004a 1B96      		adiw r26,11
 423 004c 2C91      		ld r18,X
 424 004e 1B97      		sbiw r26,11
 425 0050 1C96      		adiw r26,12
 426 0052 9C91      		ld r25,X
 427 0054 1C97      		sbiw r26,12
 428 0056 1D96      		adiw r26,13
 429 0058 8C91      		ld r24,X
 430 005a 1D97      		sbiw r26,13
 431 005c 3087      		std Z+8,r19
 432               	.LVL32:
  49:./ros_lib/kitty_msgs/KittyState.h ****       *(outbuffer + offset + 1) = (u_rotation_speed.base >> (8 * 1)) & 0xFF;
 433               		.loc 5 49 0
 434 005e 2187      		std Z+9,r18
  50:./ros_lib/kitty_msgs/KittyState.h ****       *(outbuffer + offset + 2) = (u_rotation_speed.base >> (8 * 2)) & 0xFF;
 435               		.loc 5 50 0
 436 0060 9287      		std Z+10,r25
  51:./ros_lib/kitty_msgs/KittyState.h ****       *(outbuffer + offset + 3) = (u_rotation_speed.base >> (8 * 3)) & 0xFF;
 437               		.loc 5 51 0
 438 0062 8387      		std Z+11,r24
 439               	.LVL33:
  52:./ros_lib/kitty_msgs/KittyState.h ****       offset += sizeof(this->rotation_speed);
  53:./ros_lib/kitty_msgs/KittyState.h ****       union {
  54:./ros_lib/kitty_msgs/KittyState.h ****         float real;
  55:./ros_lib/kitty_msgs/KittyState.h ****         uint32_t base;
  56:./ros_lib/kitty_msgs/KittyState.h ****       } u_angle_steering;
  57:./ros_lib/kitty_msgs/KittyState.h ****       u_angle_steering.real = this->angle_steering;
  58:./ros_lib/kitty_msgs/KittyState.h ****       *(outbuffer + offset + 0) = (u_angle_steering.base >> (8 * 0)) & 0xFF;
 440               		.loc 5 58 0
 441 0064 1E96      		adiw r26,14
 442 0066 3C91      		ld r19,X
 443 0068 1E97      		sbiw r26,14
 444 006a 1F96      		adiw r26,15
 445 006c 2C91      		ld r18,X
 446 006e 1F97      		sbiw r26,15
 447 0070 5096      		adiw r26,16
 448 0072 9C91      		ld r25,X
 449 0074 5097      		sbiw r26,16
 450 0076 5196      		adiw r26,17
 451 0078 8C91      		ld r24,X
 452 007a 3487      		std Z+12,r19
 453               	.LVL34:
  59:./ros_lib/kitty_msgs/KittyState.h ****       *(outbuffer + offset + 1) = (u_angle_steering.base >> (8 * 1)) & 0xFF;
 454               		.loc 5 59 0
 455 007c 2587      		std Z+13,r18
  60:./ros_lib/kitty_msgs/KittyState.h ****       *(outbuffer + offset + 2) = (u_angle_steering.base >> (8 * 2)) & 0xFF;
 456               		.loc 5 60 0
 457 007e 9687      		std Z+14,r25
  61:./ros_lib/kitty_msgs/KittyState.h ****       *(outbuffer + offset + 3) = (u_angle_steering.base >> (8 * 3)) & 0xFF;
 458               		.loc 5 61 0
 459 0080 8787      		std Z+15,r24
 460               	.LVL35:
  62:./ros_lib/kitty_msgs/KittyState.h ****       offset += sizeof(this->angle_steering);
  63:./ros_lib/kitty_msgs/KittyState.h ****       return offset;
  64:./ros_lib/kitty_msgs/KittyState.h ****     }
 461               		.loc 5 64 0
 462 0082 80E1      		ldi r24,lo8(16)
 463 0084 90E0      		ldi r25,0
 464 0086 0895      		ret
 465               		.cfi_endproc
 466               	.LFE135:
 468               		.section	.text._ZN10kitty_msgs10KittyState11deserializeEPh,"axG",@progbits,_ZN10kitty_msgs10KittyS
 469               		.weak	_ZN10kitty_msgs10KittyState11deserializeEPh
 471               	_ZN10kitty_msgs10KittyState11deserializeEPh:
 472               	.LFB136:
  65:./ros_lib/kitty_msgs/KittyState.h **** 
  66:./ros_lib/kitty_msgs/KittyState.h ****     virtual int deserialize(unsigned char *inbuffer) override
 473               		.loc 5 66 0
 474               		.cfi_startproc
 475               	.LVL36:
 476               	/* prologue: function */
 477               	/* frame size = 0 */
 478               	/* stack size = 0 */
 479               	.L__stack_usage = 0
 480 0000 FC01      		movw r30,r24
 481 0002 DB01      		movw r26,r22
 482               	.LVL37:
  67:./ros_lib/kitty_msgs/KittyState.h ****     {
  68:./ros_lib/kitty_msgs/KittyState.h ****       int offset = 0;
  69:./ros_lib/kitty_msgs/KittyState.h ****       this->stamp.sec =  ((uint32_t) (*(inbuffer + offset)));
 483               		.loc 5 69 0
 484 0004 4C91      		ld r20,X
 485 0006 50E0      		ldi r21,0
 486 0008 60E0      		ldi r22,0
 487 000a 70E0      		ldi r23,0
 488               	.LVL38:
 489 000c 4283      		std Z+2,r20
 490 000e 5383      		std Z+3,r21
 491 0010 6483      		std Z+4,r22
 492 0012 7583      		std Z+5,r23
  70:./ros_lib/kitty_msgs/KittyState.h ****       this->stamp.sec |= ((uint32_t) (*(inbuffer + offset + 1))) << (8 * 1);
 493               		.loc 5 70 0
 494 0014 1196      		adiw r26,1
 495 0016 8C91      		ld r24,X
 496 0018 1197      		sbiw r26,1
 497               	.LVL39:
 498 001a 582B      		or r21,r24
 499 001c 4283      		std Z+2,r20
 500 001e 5383      		std Z+3,r21
 501 0020 6483      		std Z+4,r22
 502 0022 7583      		std Z+5,r23
  71:./ros_lib/kitty_msgs/KittyState.h ****       this->stamp.sec |= ((uint32_t) (*(inbuffer + offset + 2))) << (8 * 2);
 503               		.loc 5 71 0
 504 0024 1296      		adiw r26,2
 505 0026 8C91      		ld r24,X
 506 0028 1297      		sbiw r26,2
 507 002a 682B      		or r22,r24
 508 002c 4283      		std Z+2,r20
 509 002e 5383      		std Z+3,r21
 510 0030 6483      		std Z+4,r22
 511 0032 7583      		std Z+5,r23
  72:./ros_lib/kitty_msgs/KittyState.h ****       this->stamp.sec |= ((uint32_t) (*(inbuffer + offset + 3))) << (8 * 3);
 512               		.loc 5 72 0
 513 0034 1396      		adiw r26,3
 514 0036 8C91      		ld r24,X
 515 0038 1397      		sbiw r26,3
 516 003a 782B      		or r23,r24
 517 003c 4283      		std Z+2,r20
 518 003e 5383      		std Z+3,r21
 519 0040 6483      		std Z+4,r22
 520 0042 7583      		std Z+5,r23
 521               	.LVL40:
  73:./ros_lib/kitty_msgs/KittyState.h ****       offset += sizeof(this->stamp.sec);
  74:./ros_lib/kitty_msgs/KittyState.h ****       this->stamp.nsec =  ((uint32_t) (*(inbuffer + offset)));
 522               		.loc 5 74 0
 523 0044 1496      		adiw r26,4
 524 0046 4C91      		ld r20,X
 525 0048 1497      		sbiw r26,4
 526 004a 50E0      		ldi r21,0
 527 004c 60E0      		ldi r22,0
 528 004e 70E0      		ldi r23,0
 529 0050 4683      		std Z+6,r20
 530 0052 5783      		std Z+7,r21
 531 0054 6087      		std Z+8,r22
 532 0056 7187      		std Z+9,r23
  75:./ros_lib/kitty_msgs/KittyState.h ****       this->stamp.nsec |= ((uint32_t) (*(inbuffer + offset + 1))) << (8 * 1);
 533               		.loc 5 75 0
 534 0058 1596      		adiw r26,5
 535 005a 8C91      		ld r24,X
 536 005c 1597      		sbiw r26,5
 537 005e 582B      		or r21,r24
 538 0060 4683      		std Z+6,r20
 539 0062 5783      		std Z+7,r21
 540 0064 6087      		std Z+8,r22
 541 0066 7187      		std Z+9,r23
  76:./ros_lib/kitty_msgs/KittyState.h ****       this->stamp.nsec |= ((uint32_t) (*(inbuffer + offset + 2))) << (8 * 2);
 542               		.loc 5 76 0
 543 0068 1696      		adiw r26,6
 544 006a 8C91      		ld r24,X
 545 006c 1697      		sbiw r26,6
 546 006e 682B      		or r22,r24
 547 0070 4683      		std Z+6,r20
 548 0072 5783      		std Z+7,r21
 549 0074 6087      		std Z+8,r22
 550 0076 7187      		std Z+9,r23
  77:./ros_lib/kitty_msgs/KittyState.h ****       this->stamp.nsec |= ((uint32_t) (*(inbuffer + offset + 3))) << (8 * 3);
 551               		.loc 5 77 0
 552 0078 1796      		adiw r26,7
 553 007a 8C91      		ld r24,X
 554 007c 1797      		sbiw r26,7
 555 007e 782B      		or r23,r24
 556 0080 4683      		std Z+6,r20
 557 0082 5783      		std Z+7,r21
 558 0084 6087      		std Z+8,r22
 559 0086 7187      		std Z+9,r23
 560               	.LVL41:
  78:./ros_lib/kitty_msgs/KittyState.h ****       offset += sizeof(this->stamp.nsec);
  79:./ros_lib/kitty_msgs/KittyState.h ****       union {
  80:./ros_lib/kitty_msgs/KittyState.h ****         float real;
  81:./ros_lib/kitty_msgs/KittyState.h ****         uint32_t base;
  82:./ros_lib/kitty_msgs/KittyState.h ****       } u_rotation_speed;
  83:./ros_lib/kitty_msgs/KittyState.h ****       u_rotation_speed.base = 0;
  84:./ros_lib/kitty_msgs/KittyState.h ****       u_rotation_speed.base |= ((uint32_t) (*(inbuffer + offset + 0))) << (8 * 0);
  85:./ros_lib/kitty_msgs/KittyState.h ****       u_rotation_speed.base |= ((uint32_t) (*(inbuffer + offset + 1))) << (8 * 1);
  86:./ros_lib/kitty_msgs/KittyState.h ****       u_rotation_speed.base |= ((uint32_t) (*(inbuffer + offset + 2))) << (8 * 2);
  87:./ros_lib/kitty_msgs/KittyState.h ****       u_rotation_speed.base |= ((uint32_t) (*(inbuffer + offset + 3))) << (8 * 3);
  88:./ros_lib/kitty_msgs/KittyState.h ****       this->rotation_speed = u_rotation_speed.real;
 561               		.loc 5 88 0
 562 0088 1896      		adiw r26,8
 563 008a 4D91      		ld r20,X+
 564 008c 5D91      		ld r21,X+
 565 008e 6D91      		ld r22,X+
 566 0090 7C91      		ld r23,X
 567 0092 1B97      		sbiw r26,8+3
 568 0094 4287      		std Z+10,r20
 569 0096 5387      		std Z+11,r21
 570 0098 6487      		std Z+12,r22
 571 009a 7587      		std Z+13,r23
 572               	.LVL42:
  89:./ros_lib/kitty_msgs/KittyState.h ****       offset += sizeof(this->rotation_speed);
  90:./ros_lib/kitty_msgs/KittyState.h ****       union {
  91:./ros_lib/kitty_msgs/KittyState.h ****         float real;
  92:./ros_lib/kitty_msgs/KittyState.h ****         uint32_t base;
  93:./ros_lib/kitty_msgs/KittyState.h ****       } u_angle_steering;
  94:./ros_lib/kitty_msgs/KittyState.h ****       u_angle_steering.base = 0;
  95:./ros_lib/kitty_msgs/KittyState.h ****       u_angle_steering.base |= ((uint32_t) (*(inbuffer + offset + 0))) << (8 * 0);
  96:./ros_lib/kitty_msgs/KittyState.h ****       u_angle_steering.base |= ((uint32_t) (*(inbuffer + offset + 1))) << (8 * 1);
  97:./ros_lib/kitty_msgs/KittyState.h ****       u_angle_steering.base |= ((uint32_t) (*(inbuffer + offset + 2))) << (8 * 2);
  98:./ros_lib/kitty_msgs/KittyState.h ****       u_angle_steering.base |= ((uint32_t) (*(inbuffer + offset + 3))) << (8 * 3);
  99:./ros_lib/kitty_msgs/KittyState.h ****       this->angle_steering = u_angle_steering.real;
 573               		.loc 5 99 0
 574 009c 1C96      		adiw r26,12
 575 009e 8D91      		ld r24,X+
 576 00a0 9D91      		ld r25,X+
 577 00a2 0D90      		ld __tmp_reg__,X+
 578 00a4 BC91      		ld r27,X
 579 00a6 A02D      		mov r26,__tmp_reg__
 580 00a8 8687      		std Z+14,r24
 581 00aa 9787      		std Z+15,r25
 582 00ac A08B      		std Z+16,r26
 583 00ae B18B      		std Z+17,r27
 584               	.LVL43:
 100:./ros_lib/kitty_msgs/KittyState.h ****       offset += sizeof(this->angle_steering);
 101:./ros_lib/kitty_msgs/KittyState.h ****      return offset;
 102:./ros_lib/kitty_msgs/KittyState.h ****     }
 585               		.loc 5 102 0
 586 00b0 80E1      		ldi r24,lo8(16)
 587 00b2 90E0      		ldi r25,0
 588 00b4 0895      		ret
 589               		.cfi_endproc
 590               	.LFE136:
 592               		.section	.rodata.str1.1
 593               	.LC7:
 594 00be 6B69 7474 		.string	"kitty_msgs/KittyState"
 594      795F 6D73 
 594      6773 2F4B 
 594      6974 7479 
 594      5374 6174 
 595               		.section	.text._ZN10kitty_msgs10KittyState7getTypeEv,"axG",@progbits,_ZN10kitty_msgs10KittyState7g
 596               		.weak	_ZN10kitty_msgs10KittyState7getTypeEv
 598               	_ZN10kitty_msgs10KittyState7getTypeEv:
 599               	.LFB137:
 103:./ros_lib/kitty_msgs/KittyState.h **** 
 104:./ros_lib/kitty_msgs/KittyState.h ****     virtual const char * getType() override { return "kitty_msgs/KittyState"; };
 600               		.loc 5 104 0
 601               		.cfi_startproc
 602               	.LVL44:
 603               	/* prologue: function */
 604               	/* frame size = 0 */
 605               	/* stack size = 0 */
 606               	.L__stack_usage = 0
 607               		.loc 5 104 0
 608 0000 80E0      		ldi r24,lo8(.LC7)
 609 0002 90E0      		ldi r25,hi8(.LC7)
 610               	.LVL45:
 611 0004 0895      		ret
 612               		.cfi_endproc
 613               	.LFE137:
 615               		.section	.rodata.str1.1
 616               	.LC8:
 617 00d4 6633 3365 		.string	"f33ef25a14a86ca752a5d1da20481e38"
 617      6632 3561 
 617      3134 6138 
 617      3663 6137 
 617      3532 6135 
 618               		.section	.text._ZN10kitty_msgs10KittyState6getMD5Ev,"axG",@progbits,_ZN10kitty_msgs10KittyState6ge
 619               		.weak	_ZN10kitty_msgs10KittyState6getMD5Ev
 621               	_ZN10kitty_msgs10KittyState6getMD5Ev:
 622               	.LFB138:
 105:./ros_lib/kitty_msgs/KittyState.h ****     virtual const char * getMD5() override { return "f33ef25a14a86ca752a5d1da20481e38"; };
 623               		.loc 5 105 0
 624               		.cfi_startproc
 625               	.LVL46:
 626               	/* prologue: function */
 627               	/* frame size = 0 */
 628               	/* stack size = 0 */
 629               	.L__stack_usage = 0
 630               		.loc 5 105 0
 631 0000 80E0      		ldi r24,lo8(.LC8)
 632 0002 90E0      		ldi r25,hi8(.LC8)
 633               	.LVL47:
 634 0004 0895      		ret
 635               		.cfi_endproc
 636               	.LFE138:
 638               		.section	.text._ZN3ros10SubscriberIN10kitty_msgs10KittyStateEvE8callbackEPh,"axG",@progbits,_ZN3ro
 639               		.weak	_ZN3ros10SubscriberIN10kitty_msgs10KittyStateEvE8callbackEPh
 641               	_ZN3ros10SubscriberIN10kitty_msgs10KittyStateEvE8callbackEPh:
 642               	.LFB172:
 643               		.file 6 "./ros_lib/ros/subscriber.h"
   1:./ros_lib/ros/subscriber.h **** /*
   2:./ros_lib/ros/subscriber.h ****  * Software License Agreement (BSD License)
   3:./ros_lib/ros/subscriber.h ****  *
   4:./ros_lib/ros/subscriber.h ****  * Copyright (c) 2011, Willow Garage, Inc.
   5:./ros_lib/ros/subscriber.h ****  * All rights reserved.
   6:./ros_lib/ros/subscriber.h ****  *
   7:./ros_lib/ros/subscriber.h ****  * Redistribution and use in source and binary forms, with or without
   8:./ros_lib/ros/subscriber.h ****  * modification, are permitted provided that the following conditions
   9:./ros_lib/ros/subscriber.h ****  * are met:
  10:./ros_lib/ros/subscriber.h ****  *
  11:./ros_lib/ros/subscriber.h ****  *  * Redistributions of source code must retain the above copyright
  12:./ros_lib/ros/subscriber.h ****  *    notice, this list of conditions and the following disclaimer.
  13:./ros_lib/ros/subscriber.h ****  *  * Redistributions in binary form must reproduce the above
  14:./ros_lib/ros/subscriber.h ****  *    copyright notice, this list of conditions and the following
  15:./ros_lib/ros/subscriber.h ****  *    disclaimer in the documentation and/or other materials provided
  16:./ros_lib/ros/subscriber.h ****  *    with the distribution.
  17:./ros_lib/ros/subscriber.h ****  *  * Neither the name of Willow Garage, Inc. nor the names of its
  18:./ros_lib/ros/subscriber.h ****  *    contributors may be used to endorse or promote prducts derived
  19:./ros_lib/ros/subscriber.h ****  *    from this software without specific prior written permission.
  20:./ros_lib/ros/subscriber.h ****  *
  21:./ros_lib/ros/subscriber.h ****  * THIS SOFTWARE IS PROVIDED BY THE COPYRIGHT HOLDERS AND CONTRIBUTORS
  22:./ros_lib/ros/subscriber.h ****  * "AS IS" AND ANY EXPRESS OR IMPLIED WARRANTIES, INCLUDING, BUT NOT
  23:./ros_lib/ros/subscriber.h ****  * LIMITED TO, THE IMPLIED WARRANTIES OF MERCHANTABILITY AND FITNESS
  24:./ros_lib/ros/subscriber.h ****  * FOR A PARTICULAR PURPOSE ARE DISCLAIMED. IN NO EVENT SHALL THE
  25:./ros_lib/ros/subscriber.h ****  * COPYRIGHT OWNER OR CONTRIBUTORS BE LIABLE FOR ANY DIRECT, INDIRECT,
  26:./ros_lib/ros/subscriber.h ****  * INCIDENTAL, SPECIAL, EXEMPLARY, OR CONSEQUENTIAL DAMAGES (INCLUDING,
  27:./ros_lib/ros/subscriber.h ****  * BUT NOT LIMITED TO, PROCUREMENT OF SUBSTITUTE GOODS OR SERVICES;
  28:./ros_lib/ros/subscriber.h ****  * LOSS OF USE, DATA, OR PROFITS; OR BUSINESS INTERRUPTION) HOWEVER
  29:./ros_lib/ros/subscriber.h ****  * CAUSED AND ON ANY THEORY OF LIABILITY, WHETHER IN CONTRACT, STRICT
  30:./ros_lib/ros/subscriber.h ****  * LIABILITY, OR TORT (INCLUDING NEGLIGENCE OR OTHERWISE) ARISING IN
  31:./ros_lib/ros/subscriber.h ****  * ANY WAY OUT OF THE USE OF THIS SOFTWARE, EVEN IF ADVISED OF THE
  32:./ros_lib/ros/subscriber.h ****  * POSSIBILITY OF SUCH DAMAGE.
  33:./ros_lib/ros/subscriber.h ****  */
  34:./ros_lib/ros/subscriber.h **** 
  35:./ros_lib/ros/subscriber.h **** #ifndef ROS_SUBSCRIBER_H_
  36:./ros_lib/ros/subscriber.h **** #define ROS_SUBSCRIBER_H_
  37:./ros_lib/ros/subscriber.h **** 
  38:./ros_lib/ros/subscriber.h **** #include "rosserial_msgs/TopicInfo.h"
  39:./ros_lib/ros/subscriber.h **** 
  40:./ros_lib/ros/subscriber.h **** namespace ros
  41:./ros_lib/ros/subscriber.h **** {
  42:./ros_lib/ros/subscriber.h **** 
  43:./ros_lib/ros/subscriber.h **** /* Base class for objects subscribers. */
  44:./ros_lib/ros/subscriber.h **** class Subscriber_
  45:./ros_lib/ros/subscriber.h **** {
  46:./ros_lib/ros/subscriber.h **** public:
  47:./ros_lib/ros/subscriber.h ****   virtual void callback(unsigned char *data) = 0;
  48:./ros_lib/ros/subscriber.h ****   virtual int getEndpointType() = 0;
  49:./ros_lib/ros/subscriber.h **** 
  50:./ros_lib/ros/subscriber.h ****   // id_ is set by NodeHandle when we advertise
  51:./ros_lib/ros/subscriber.h ****   int id_;
  52:./ros_lib/ros/subscriber.h **** 
  53:./ros_lib/ros/subscriber.h ****   virtual const char * getMsgType() = 0;
  54:./ros_lib/ros/subscriber.h ****   virtual const char * getMsgMD5() = 0;
  55:./ros_lib/ros/subscriber.h ****   const char * topic_;
  56:./ros_lib/ros/subscriber.h **** };
  57:./ros_lib/ros/subscriber.h **** 
  58:./ros_lib/ros/subscriber.h **** /* Bound function subscriber. */
  59:./ros_lib/ros/subscriber.h **** template<typename MsgT, typename ObjT = void>
  60:./ros_lib/ros/subscriber.h **** class Subscriber: public Subscriber_
  61:./ros_lib/ros/subscriber.h **** {
  62:./ros_lib/ros/subscriber.h **** public:
  63:./ros_lib/ros/subscriber.h ****   typedef void(ObjT::*CallbackT)(const MsgT&);
  64:./ros_lib/ros/subscriber.h ****   MsgT msg;
  65:./ros_lib/ros/subscriber.h **** 
  66:./ros_lib/ros/subscriber.h ****   Subscriber(const char * topic_name, CallbackT cb, ObjT* obj, int endpoint = rosserial_msgs::Topic
  67:./ros_lib/ros/subscriber.h ****     cb_(cb),
  68:./ros_lib/ros/subscriber.h ****     obj_(obj),
  69:./ros_lib/ros/subscriber.h ****     endpoint_(endpoint)
  70:./ros_lib/ros/subscriber.h ****   {
  71:./ros_lib/ros/subscriber.h ****     topic_ = topic_name;
  72:./ros_lib/ros/subscriber.h ****   };
  73:./ros_lib/ros/subscriber.h **** 
  74:./ros_lib/ros/subscriber.h ****   virtual void callback(unsigned char* data) override
  75:./ros_lib/ros/subscriber.h ****   {
  76:./ros_lib/ros/subscriber.h ****     msg.deserialize(data);
  77:./ros_lib/ros/subscriber.h ****     (obj_->*cb_)(msg);
  78:./ros_lib/ros/subscriber.h ****   }
  79:./ros_lib/ros/subscriber.h **** 
  80:./ros_lib/ros/subscriber.h ****   virtual const char * getMsgType() override
  81:./ros_lib/ros/subscriber.h ****   {
  82:./ros_lib/ros/subscriber.h ****     return this->msg.getType();
  83:./ros_lib/ros/subscriber.h ****   }
  84:./ros_lib/ros/subscriber.h ****   virtual const char * getMsgMD5() override
  85:./ros_lib/ros/subscriber.h ****   {
  86:./ros_lib/ros/subscriber.h ****     return this->msg.getMD5();
  87:./ros_lib/ros/subscriber.h ****   }
  88:./ros_lib/ros/subscriber.h ****   virtual int getEndpointType() override
  89:./ros_lib/ros/subscriber.h ****   {
  90:./ros_lib/ros/subscriber.h ****     return endpoint_;
  91:./ros_lib/ros/subscriber.h ****   }
  92:./ros_lib/ros/subscriber.h **** 
  93:./ros_lib/ros/subscriber.h **** private:
  94:./ros_lib/ros/subscriber.h ****   CallbackT cb_;
  95:./ros_lib/ros/subscriber.h ****   ObjT* obj_;
  96:./ros_lib/ros/subscriber.h ****   int endpoint_;
  97:./ros_lib/ros/subscriber.h **** };
  98:./ros_lib/ros/subscriber.h **** 
  99:./ros_lib/ros/subscriber.h **** /* Standalone function subscriber. */
 100:./ros_lib/ros/subscriber.h **** template<typename MsgT>
 101:./ros_lib/ros/subscriber.h **** class Subscriber<MsgT, void>: public Subscriber_
 102:./ros_lib/ros/subscriber.h **** {
 103:./ros_lib/ros/subscriber.h **** public:
 104:./ros_lib/ros/subscriber.h ****   typedef void(*CallbackT)(const MsgT&);
 105:./ros_lib/ros/subscriber.h ****   MsgT msg;
 106:./ros_lib/ros/subscriber.h **** 
 107:./ros_lib/ros/subscriber.h ****   Subscriber(const char * topic_name, CallbackT cb, int endpoint = rosserial_msgs::TopicInfo::ID_SU
 108:./ros_lib/ros/subscriber.h ****     cb_(cb),
 109:./ros_lib/ros/subscriber.h ****     endpoint_(endpoint)
 110:./ros_lib/ros/subscriber.h ****   {
 111:./ros_lib/ros/subscriber.h ****     topic_ = topic_name;
 112:./ros_lib/ros/subscriber.h ****   };
 113:./ros_lib/ros/subscriber.h **** 
 114:./ros_lib/ros/subscriber.h ****   virtual void callback(unsigned char* data) override
 644               		.loc 6 114 0
 645               		.cfi_startproc
 646               	.LVL48:
 647 0000 0F93      		push r16
 648               	.LCFI0:
 649               		.cfi_def_cfa_offset 4
 650               		.cfi_offset 16, -3
 651 0002 1F93      		push r17
 652               	.LCFI1:
 653               		.cfi_def_cfa_offset 5
 654               		.cfi_offset 17, -4
 655 0004 CF93      		push r28
 656               	.LCFI2:
 657               		.cfi_def_cfa_offset 6
 658               		.cfi_offset 28, -5
 659 0006 DF93      		push r29
 660               	.LCFI3:
 661               		.cfi_def_cfa_offset 7
 662               		.cfi_offset 29, -6
 663               	/* prologue: function */
 664               	/* frame size = 0 */
 665               	/* stack size = 4 */
 666               	.L__stack_usage = 4
 667 0008 8C01      		movw r16,r24
 115:./ros_lib/ros/subscriber.h ****   {
 116:./ros_lib/ros/subscriber.h ****     msg.deserialize(data);
 668               		.loc 6 116 0
 669 000a EC01      		movw r28,r24
 670 000c 2696      		adiw r28,6
 671 000e CE01      		movw r24,r28
 672               	.LVL49:
 673 0010 0E94 0000 		call _ZN10kitty_msgs10KittyState11deserializeEPh
 674               	.LVL50:
 117:./ros_lib/ros/subscriber.h ****     this->cb_(msg);
 675               		.loc 6 117 0
 676 0014 D801      		movw r26,r16
 677 0016 5896      		adiw r26,24
 678 0018 ED91      		ld r30,X+
 679 001a FC91      		ld r31,X
 680 001c 5997      		sbiw r26,24+1
 681 001e CE01      		movw r24,r28
 682               	/* epilogue start */
 118:./ros_lib/ros/subscriber.h ****   }
 683               		.loc 6 118 0
 684 0020 DF91      		pop r29
 685 0022 CF91      		pop r28
 686 0024 1F91      		pop r17
 687 0026 0F91      		pop r16
 688               	.LVL51:
 117:./ros_lib/ros/subscriber.h ****     this->cb_(msg);
 689               		.loc 6 117 0
 690 0028 1994      		eijmp
 691               	.LVL52:
 692               		.cfi_endproc
 693               	.LFE172:
 695               		.section	.text._ZN3ros10SubscriberIN10kitty_msgs10KittyStateEvE15getEndpointTypeEv,"axG",@progbits
 696               		.weak	_ZN3ros10SubscriberIN10kitty_msgs10KittyStateEvE15getEndpointTypeEv
 698               	_ZN3ros10SubscriberIN10kitty_msgs10KittyStateEvE15getEndpointTypeEv:
 699               	.LFB173:
 119:./ros_lib/ros/subscriber.h **** 
 120:./ros_lib/ros/subscriber.h ****   virtual const char * getMsgType() override
 121:./ros_lib/ros/subscriber.h ****   {
 122:./ros_lib/ros/subscriber.h ****     return this->msg.getType();
 123:./ros_lib/ros/subscriber.h ****   }
 124:./ros_lib/ros/subscriber.h ****   virtual const char * getMsgMD5() override
 125:./ros_lib/ros/subscriber.h ****   {
 126:./ros_lib/ros/subscriber.h ****     return this->msg.getMD5();
 127:./ros_lib/ros/subscriber.h ****   }
 128:./ros_lib/ros/subscriber.h ****   virtual int getEndpointType() override
 700               		.loc 6 128 0
 701               		.cfi_startproc
 702               	.LVL53:
 703               	/* prologue: function */
 704               	/* frame size = 0 */
 705               	/* stack size = 0 */
 706               	.L__stack_usage = 0
 129:./ros_lib/ros/subscriber.h ****   {
 130:./ros_lib/ros/subscriber.h ****     return endpoint_;
 131:./ros_lib/ros/subscriber.h ****   }
 707               		.loc 6 131 0
 708 0000 FC01      		movw r30,r24
 709 0002 828D      		ldd r24,Z+26
 710 0004 938D      		ldd r25,Z+27
 711               	.LVL54:
 712 0006 0895      		ret
 713               		.cfi_endproc
 714               	.LFE173:
 716               		.section	.text._ZN3ros10SubscriberIN10kitty_msgs10KittyStateEvE10getMsgTypeEv,"axG",@progbits,_ZN3
 717               		.weak	_ZN3ros10SubscriberIN10kitty_msgs10KittyStateEvE10getMsgTypeEv
 719               	_ZN3ros10SubscriberIN10kitty_msgs10KittyStateEvE10getMsgTypeEv:
 720               	.LFB174:
 120:./ros_lib/ros/subscriber.h ****   {
 721               		.loc 6 120 0
 722               		.cfi_startproc
 723               	.LVL55:
 724               	/* prologue: function */
 725               	/* frame size = 0 */
 726               	/* stack size = 0 */
 727               	.L__stack_usage = 0
 123:./ros_lib/ros/subscriber.h ****   virtual const char * getMsgMD5() override
 728               		.loc 6 123 0
 729 0000 80E0      		ldi r24,lo8(.LC7)
 730 0002 90E0      		ldi r25,hi8(.LC7)
 731               	.LVL56:
 732 0004 0895      		ret
 733               		.cfi_endproc
 734               	.LFE174:
 736               		.section	.text._ZN3ros10SubscriberIN10kitty_msgs10KittyStateEvE9getMsgMD5Ev,"axG",@progbits,_ZN3ro
 737               		.weak	_ZN3ros10SubscriberIN10kitty_msgs10KittyStateEvE9getMsgMD5Ev
 739               	_ZN3ros10SubscriberIN10kitty_msgs10KittyStateEvE9getMsgMD5Ev:
 740               	.LFB175:
 124:./ros_lib/ros/subscriber.h ****   {
 741               		.loc 6 124 0
 742               		.cfi_startproc
 743               	.LVL57:
 744               	/* prologue: function */
 745               	/* frame size = 0 */
 746               	/* stack size = 0 */
 747               	.L__stack_usage = 0
 127:./ros_lib/ros/subscriber.h ****   virtual int getEndpointType() override
 748               		.loc 6 127 0
 749 0000 80E0      		ldi r24,lo8(.LC8)
 750 0002 90E0      		ldi r25,hi8(.LC8)
 751               	.LVL58:
 752 0004 0895      		ret
 753               		.cfi_endproc
 754               	.LFE175:
 756               		.section	.text._ZN3ros11NodeHandle_I18Atmega2560HardwareLi25ELi25ELi512ELi512EE9connectedEv,"axG",
 757               		.weak	_ZN3ros11NodeHandle_I18Atmega2560HardwareLi25ELi25ELi512ELi512EE9connectedEv
 759               	_ZN3ros11NodeHandle_I18Atmega2560HardwareLi25ELi25ELi512ELi512EE9connectedEv:
 760               	.LFB176:
 761               		.file 7 "./ros_lib/ros/node_handle.h"
   1:./ros_lib/ros/node_handle.h **** /*
   2:./ros_lib/ros/node_handle.h ****  * Software License Agreement (BSD License)
   3:./ros_lib/ros/node_handle.h ****  *
   4:./ros_lib/ros/node_handle.h ****  * Copyright (c) 2011, Willow Garage, Inc.
   5:./ros_lib/ros/node_handle.h ****  * All rights reserved.
   6:./ros_lib/ros/node_handle.h ****  *
   7:./ros_lib/ros/node_handle.h ****  * Redistribution and use in source and binary forms, with or without
   8:./ros_lib/ros/node_handle.h ****  * modification, are permitted provided that the following conditions
   9:./ros_lib/ros/node_handle.h ****  * are met:
  10:./ros_lib/ros/node_handle.h ****  *
  11:./ros_lib/ros/node_handle.h ****  *  * Redistributions of source code must retain the above copyright
  12:./ros_lib/ros/node_handle.h ****  *    notice, this list of conditions and the following disclaimer.
  13:./ros_lib/ros/node_handle.h ****  *  * Redistributions in binary form must reproduce the above
  14:./ros_lib/ros/node_handle.h ****  *    copyright notice, this list of conditions and the following
  15:./ros_lib/ros/node_handle.h ****  *    disclaimer in the documentation and/or other materials provided
  16:./ros_lib/ros/node_handle.h ****  *    with the distribution.
  17:./ros_lib/ros/node_handle.h ****  *  * Neither the name of Willow Garage, Inc. nor the names of its
  18:./ros_lib/ros/node_handle.h ****  *    contributors may be used to endorse or promote prducts derived
  19:./ros_lib/ros/node_handle.h ****  *    from this software without specific prior written permission.
  20:./ros_lib/ros/node_handle.h ****  *
  21:./ros_lib/ros/node_handle.h ****  * THIS SOFTWARE IS PROVIDED BY THE COPYRIGHT HOLDERS AND CONTRIBUTORS
  22:./ros_lib/ros/node_handle.h ****  * "AS IS" AND ANY EXPRESS OR IMPLIED WARRANTIES, INCLUDING, BUT NOT
  23:./ros_lib/ros/node_handle.h ****  * LIMITED TO, THE IMPLIED WARRANTIES OF MERCHANTABILITY AND FITNESS
  24:./ros_lib/ros/node_handle.h ****  * FOR A PARTICULAR PURPOSE ARE DISCLAIMED. IN NO EVENT SHALL THE
  25:./ros_lib/ros/node_handle.h ****  * COPYRIGHT OWNER OR CONTRIBUTORS BE LIABLE FOR ANY DIRECT, INDIRECT,
  26:./ros_lib/ros/node_handle.h ****  * INCIDENTAL, SPECIAL, EXEMPLARY, OR CONSEQUENTIAL DAMAGES (INCLUDING,
  27:./ros_lib/ros/node_handle.h ****  * BUT NOT LIMITED TO, PROCUREMENT OF SUBSTITUTE GOODS OR SERVICES;
  28:./ros_lib/ros/node_handle.h ****  * LOSS OF USE, DATA, OR PROFITS; OR BUSINESS INTERRUPTION) HOWEVER
  29:./ros_lib/ros/node_handle.h ****  * CAUSED AND ON ANY THEORY OF LIABILITY, WHETHER IN CONTRACT, STRICT
  30:./ros_lib/ros/node_handle.h ****  * LIABILITY, OR TORT (INCLUDING NEGLIGENCE OR OTHERWISE) ARISING IN
  31:./ros_lib/ros/node_handle.h ****  * ANY WAY OUT OF THE USE OF THIS SOFTWARE, EVEN IF ADVISED OF THE
  32:./ros_lib/ros/node_handle.h ****  * POSSIBILITY OF SUCH DAMAGE.
  33:./ros_lib/ros/node_handle.h ****  */
  34:./ros_lib/ros/node_handle.h **** 
  35:./ros_lib/ros/node_handle.h **** #ifndef ROS_NODE_HANDLE_H_
  36:./ros_lib/ros/node_handle.h **** #define ROS_NODE_HANDLE_H_
  37:./ros_lib/ros/node_handle.h **** 
  38:./ros_lib/ros/node_handle.h **** #include <stdint.h>
  39:./ros_lib/ros/node_handle.h **** 
  40:./ros_lib/ros/node_handle.h **** #include "std_msgs/Time.h"
  41:./ros_lib/ros/node_handle.h **** #include "rosserial_msgs/TopicInfo.h"
  42:./ros_lib/ros/node_handle.h **** #include "rosserial_msgs/Log.h"
  43:./ros_lib/ros/node_handle.h **** #include "rosserial_msgs/RequestParam.h"
  44:./ros_lib/ros/node_handle.h **** 
  45:./ros_lib/ros/node_handle.h **** #include "ros/msg.h"
  46:./ros_lib/ros/node_handle.h **** 
  47:./ros_lib/ros/node_handle.h **** namespace ros
  48:./ros_lib/ros/node_handle.h **** {
  49:./ros_lib/ros/node_handle.h **** 
  50:./ros_lib/ros/node_handle.h **** class NodeHandleBase_
  51:./ros_lib/ros/node_handle.h **** {
  52:./ros_lib/ros/node_handle.h **** public:
  53:./ros_lib/ros/node_handle.h ****   virtual int publish(int id, const Msg* msg) = 0;
  54:./ros_lib/ros/node_handle.h ****   virtual int spinOnce() = 0;
  55:./ros_lib/ros/node_handle.h ****   virtual bool connected() = 0;
  56:./ros_lib/ros/node_handle.h **** };
  57:./ros_lib/ros/node_handle.h **** }
  58:./ros_lib/ros/node_handle.h **** 
  59:./ros_lib/ros/node_handle.h **** #include "ros/publisher.h"
  60:./ros_lib/ros/node_handle.h **** #include "ros/subscriber.h"
  61:./ros_lib/ros/node_handle.h **** #include "ros/service_server.h"
  62:./ros_lib/ros/node_handle.h **** #include "ros/service_client.h"
  63:./ros_lib/ros/node_handle.h **** 
  64:./ros_lib/ros/node_handle.h **** namespace ros
  65:./ros_lib/ros/node_handle.h **** {
  66:./ros_lib/ros/node_handle.h **** 
  67:./ros_lib/ros/node_handle.h **** const int SPIN_OK = 0;
  68:./ros_lib/ros/node_handle.h **** const int SPIN_ERR = -1;
  69:./ros_lib/ros/node_handle.h **** const int SPIN_TIMEOUT = -2;
  70:./ros_lib/ros/node_handle.h **** const int SPIN_TX_STOP_REQUESTED = -3;
  71:./ros_lib/ros/node_handle.h **** const int SPIN_TIME_RECV = -4;
  72:./ros_lib/ros/node_handle.h **** 
  73:./ros_lib/ros/node_handle.h **** const uint8_t SYNC_SECONDS  = 5;
  74:./ros_lib/ros/node_handle.h **** const uint8_t MODE_FIRST_FF = 0;
  75:./ros_lib/ros/node_handle.h **** /*
  76:./ros_lib/ros/node_handle.h ****  * The second sync byte is a protocol version. It's value is 0xff for the first
  77:./ros_lib/ros/node_handle.h ****  * version of the rosserial protocol (used up to hydro), 0xfe for the second version
  78:./ros_lib/ros/node_handle.h ****  * (introduced in hydro), 0xfd for the next, and so on. Its purpose is to enable
  79:./ros_lib/ros/node_handle.h ****  * detection of mismatched protocol versions (e.g. hydro rosserial_python with groovy
  80:./ros_lib/ros/node_handle.h ****  * rosserial_arduino. It must be changed in both this file and in
  81:./ros_lib/ros/node_handle.h ****  * rosserial_python/src/rosserial_python/SerialClient.py
  82:./ros_lib/ros/node_handle.h ****  */
  83:./ros_lib/ros/node_handle.h **** const uint8_t MODE_PROTOCOL_VER   = 1;
  84:./ros_lib/ros/node_handle.h **** const uint8_t PROTOCOL_VER1       = 0xff; // through groovy
  85:./ros_lib/ros/node_handle.h **** const uint8_t PROTOCOL_VER2       = 0xfe; // in hydro
  86:./ros_lib/ros/node_handle.h **** const uint8_t PROTOCOL_VER        = PROTOCOL_VER2;
  87:./ros_lib/ros/node_handle.h **** const uint8_t MODE_SIZE_L         = 2;
  88:./ros_lib/ros/node_handle.h **** const uint8_t MODE_SIZE_H         = 3;
  89:./ros_lib/ros/node_handle.h **** const uint8_t MODE_SIZE_CHECKSUM  = 4;    // checksum for msg size received from size L and H
  90:./ros_lib/ros/node_handle.h **** const uint8_t MODE_TOPIC_L        = 5;    // waiting for topic id
  91:./ros_lib/ros/node_handle.h **** const uint8_t MODE_TOPIC_H        = 6;
  92:./ros_lib/ros/node_handle.h **** const uint8_t MODE_MESSAGE        = 7;
  93:./ros_lib/ros/node_handle.h **** const uint8_t MODE_MSG_CHECKSUM   = 8;    // checksum for msg and topic id
  94:./ros_lib/ros/node_handle.h **** 
  95:./ros_lib/ros/node_handle.h **** 
  96:./ros_lib/ros/node_handle.h **** const uint8_t SERIAL_MSG_TIMEOUT  = 20;   // 20 milliseconds to recieve all of message data
  97:./ros_lib/ros/node_handle.h **** 
  98:./ros_lib/ros/node_handle.h **** using rosserial_msgs::TopicInfo;
  99:./ros_lib/ros/node_handle.h **** 
 100:./ros_lib/ros/node_handle.h **** /* Node Handle */
 101:./ros_lib/ros/node_handle.h **** template<class Hardware,
 102:./ros_lib/ros/node_handle.h ****          int MAX_SUBSCRIBERS = 25,
 103:./ros_lib/ros/node_handle.h ****          int MAX_PUBLISHERS = 25,
 104:./ros_lib/ros/node_handle.h ****          int INPUT_SIZE = 512,
 105:./ros_lib/ros/node_handle.h ****          int OUTPUT_SIZE = 512>
 106:./ros_lib/ros/node_handle.h **** class NodeHandle_ : public NodeHandleBase_
 107:./ros_lib/ros/node_handle.h **** {
 108:./ros_lib/ros/node_handle.h **** protected:
 109:./ros_lib/ros/node_handle.h ****   Hardware hardware_{};
 110:./ros_lib/ros/node_handle.h **** 
 111:./ros_lib/ros/node_handle.h ****   /* time used for syncing */
 112:./ros_lib/ros/node_handle.h ****   uint32_t rt_time{0};
 113:./ros_lib/ros/node_handle.h **** 
 114:./ros_lib/ros/node_handle.h ****   /* used for computing current time */
 115:./ros_lib/ros/node_handle.h ****   uint32_t sec_offset{0}, nsec_offset{0};
 116:./ros_lib/ros/node_handle.h **** 
 117:./ros_lib/ros/node_handle.h ****   /* Spinonce maximum work timeout */
 118:./ros_lib/ros/node_handle.h ****   uint32_t spin_timeout_{0};
 119:./ros_lib/ros/node_handle.h **** 
 120:./ros_lib/ros/node_handle.h ****   uint8_t message_in[INPUT_SIZE] = {0};
 121:./ros_lib/ros/node_handle.h ****   uint8_t message_out[OUTPUT_SIZE] = {0};
 122:./ros_lib/ros/node_handle.h **** 
 123:./ros_lib/ros/node_handle.h ****   Publisher * publishers[MAX_PUBLISHERS] = {nullptr};
 124:./ros_lib/ros/node_handle.h ****   Subscriber_ * subscribers[MAX_SUBSCRIBERS] {nullptr};
 125:./ros_lib/ros/node_handle.h **** 
 126:./ros_lib/ros/node_handle.h ****   /*
 127:./ros_lib/ros/node_handle.h ****    * Setup Functions
 128:./ros_lib/ros/node_handle.h ****    */
 129:./ros_lib/ros/node_handle.h **** public:
 130:./ros_lib/ros/node_handle.h ****   Hardware* getHardware()
 131:./ros_lib/ros/node_handle.h ****   {
 132:./ros_lib/ros/node_handle.h ****     return &hardware_;
 133:./ros_lib/ros/node_handle.h ****   }
 134:./ros_lib/ros/node_handle.h **** 
 135:./ros_lib/ros/node_handle.h ****   /* Start serial, initialize buffers */
 136:./ros_lib/ros/node_handle.h ****   void initNode()
 137:./ros_lib/ros/node_handle.h ****   {
 138:./ros_lib/ros/node_handle.h ****     hardware_.init();
 139:./ros_lib/ros/node_handle.h ****     mode_ = 0;
 140:./ros_lib/ros/node_handle.h ****     bytes_ = 0;
 141:./ros_lib/ros/node_handle.h ****     index_ = 0;
 142:./ros_lib/ros/node_handle.h ****     topic_ = 0;
 143:./ros_lib/ros/node_handle.h ****   };
 144:./ros_lib/ros/node_handle.h **** 
 145:./ros_lib/ros/node_handle.h ****   /* Start a named port, which may be network server IP, initialize buffers */
 146:./ros_lib/ros/node_handle.h ****   void initNode(char *portName)
 147:./ros_lib/ros/node_handle.h ****   {
 148:./ros_lib/ros/node_handle.h ****     hardware_.init(portName);
 149:./ros_lib/ros/node_handle.h ****     mode_ = 0;
 150:./ros_lib/ros/node_handle.h ****     bytes_ = 0;
 151:./ros_lib/ros/node_handle.h ****     index_ = 0;
 152:./ros_lib/ros/node_handle.h ****     topic_ = 0;
 153:./ros_lib/ros/node_handle.h ****   };
 154:./ros_lib/ros/node_handle.h **** 
 155:./ros_lib/ros/node_handle.h ****   /**
 156:./ros_lib/ros/node_handle.h ****    * @brief Sets the maximum time in millisconds that spinOnce() can work.
 157:./ros_lib/ros/node_handle.h ****    * This will not effect the processing of the buffer, as spinOnce processes
 158:./ros_lib/ros/node_handle.h ****    * one byte at a time. It simply sets the maximum time that one call can
 159:./ros_lib/ros/node_handle.h ****    * process for. You can choose to clear the buffer if that is beneficial if
 160:./ros_lib/ros/node_handle.h ****    * SPIN_TIMEOUT is returned from spinOnce().
 161:./ros_lib/ros/node_handle.h ****    * @param timeout The timeout in milliseconds that spinOnce will function.
 162:./ros_lib/ros/node_handle.h ****    */
 163:./ros_lib/ros/node_handle.h ****   void setSpinTimeout(const uint32_t& timeout)
 164:./ros_lib/ros/node_handle.h ****   {
 165:./ros_lib/ros/node_handle.h ****      spin_timeout_ = timeout;
 166:./ros_lib/ros/node_handle.h ****   }
 167:./ros_lib/ros/node_handle.h **** 
 168:./ros_lib/ros/node_handle.h **** protected:
 169:./ros_lib/ros/node_handle.h ****   // State machine variables for spinOnce
 170:./ros_lib/ros/node_handle.h ****   int mode_{0};
 171:./ros_lib/ros/node_handle.h ****   int bytes_{0};
 172:./ros_lib/ros/node_handle.h ****   int topic_{0};
 173:./ros_lib/ros/node_handle.h ****   int index_{0};
 174:./ros_lib/ros/node_handle.h ****   int checksum_{0};
 175:./ros_lib/ros/node_handle.h **** 
 176:./ros_lib/ros/node_handle.h ****   bool configured_{false};
 177:./ros_lib/ros/node_handle.h **** 
 178:./ros_lib/ros/node_handle.h ****   /* used for syncing the time */
 179:./ros_lib/ros/node_handle.h ****   uint32_t last_sync_time{0};
 180:./ros_lib/ros/node_handle.h ****   uint32_t last_sync_receive_time{0};
 181:./ros_lib/ros/node_handle.h ****   uint32_t last_msg_timeout_time{0};
 182:./ros_lib/ros/node_handle.h **** 
 183:./ros_lib/ros/node_handle.h **** public:
 184:./ros_lib/ros/node_handle.h ****   /* This function goes in your loop() function, it handles
 185:./ros_lib/ros/node_handle.h ****    *  serial input and callbacks for subscribers.
 186:./ros_lib/ros/node_handle.h ****    */
 187:./ros_lib/ros/node_handle.h **** 
 188:./ros_lib/ros/node_handle.h **** 
 189:./ros_lib/ros/node_handle.h ****   virtual int spinOnce() override
 190:./ros_lib/ros/node_handle.h ****   {
 191:./ros_lib/ros/node_handle.h ****     /* restart if timed out */
 192:./ros_lib/ros/node_handle.h ****     uint32_t c_time = hardware_.time();
 193:./ros_lib/ros/node_handle.h ****     if ((c_time - last_sync_receive_time) > (SYNC_SECONDS * 2200))
 194:./ros_lib/ros/node_handle.h ****     {
 195:./ros_lib/ros/node_handle.h ****       configured_ = false;
 196:./ros_lib/ros/node_handle.h ****     }
 197:./ros_lib/ros/node_handle.h **** 
 198:./ros_lib/ros/node_handle.h ****     /* reset if message has timed out */
 199:./ros_lib/ros/node_handle.h ****     if (mode_ != MODE_FIRST_FF)
 200:./ros_lib/ros/node_handle.h ****     {
 201:./ros_lib/ros/node_handle.h ****       if (c_time > last_msg_timeout_time)
 202:./ros_lib/ros/node_handle.h ****       {
 203:./ros_lib/ros/node_handle.h ****         mode_ = MODE_FIRST_FF;
 204:./ros_lib/ros/node_handle.h ****       }
 205:./ros_lib/ros/node_handle.h ****     }
 206:./ros_lib/ros/node_handle.h **** 
 207:./ros_lib/ros/node_handle.h ****     bool tx_stop_requested = false;
 208:./ros_lib/ros/node_handle.h ****     bool saw_time_msg = false;
 209:./ros_lib/ros/node_handle.h **** 
 210:./ros_lib/ros/node_handle.h ****     /* while available buffer, read data */
 211:./ros_lib/ros/node_handle.h ****     while (true)
 212:./ros_lib/ros/node_handle.h ****     {
 213:./ros_lib/ros/node_handle.h ****       // If a timeout has been specified, check how long spinOnce has been running.
 214:./ros_lib/ros/node_handle.h ****       if (spin_timeout_ > 0)
 215:./ros_lib/ros/node_handle.h ****       {
 216:./ros_lib/ros/node_handle.h ****         // If the maximum processing timeout has been exceeded, exit with error.
 217:./ros_lib/ros/node_handle.h ****         // The next spinOnce can continue where it left off, or optionally
 218:./ros_lib/ros/node_handle.h ****         // based on the application in use, the hardware buffer could be flushed
 219:./ros_lib/ros/node_handle.h ****         // and start fresh.
 220:./ros_lib/ros/node_handle.h ****         if ((hardware_.time() - c_time) > spin_timeout_)
 221:./ros_lib/ros/node_handle.h ****         {
 222:./ros_lib/ros/node_handle.h ****           // Exit the spin, processing timeout exceeded.
 223:./ros_lib/ros/node_handle.h ****           return SPIN_TIMEOUT;
 224:./ros_lib/ros/node_handle.h ****         }
 225:./ros_lib/ros/node_handle.h ****       }
 226:./ros_lib/ros/node_handle.h ****       int data = hardware_.read();
 227:./ros_lib/ros/node_handle.h ****       if (data < 0)
 228:./ros_lib/ros/node_handle.h ****         break;
 229:./ros_lib/ros/node_handle.h ****       checksum_ += data;
 230:./ros_lib/ros/node_handle.h ****       if (mode_ == MODE_MESSAGE)          /* message data being recieved */
 231:./ros_lib/ros/node_handle.h ****       {
 232:./ros_lib/ros/node_handle.h ****         message_in[index_++] = data;
 233:./ros_lib/ros/node_handle.h ****         bytes_--;
 234:./ros_lib/ros/node_handle.h ****         if (bytes_ == 0)                 /* is message complete? if so, checksum */
 235:./ros_lib/ros/node_handle.h ****           mode_ = MODE_MSG_CHECKSUM;
 236:./ros_lib/ros/node_handle.h ****       }
 237:./ros_lib/ros/node_handle.h ****       else if (mode_ == MODE_FIRST_FF)
 238:./ros_lib/ros/node_handle.h ****       {
 239:./ros_lib/ros/node_handle.h ****         if (data == 0xff)
 240:./ros_lib/ros/node_handle.h ****         {
 241:./ros_lib/ros/node_handle.h ****           mode_++;
 242:./ros_lib/ros/node_handle.h ****           last_msg_timeout_time = c_time + SERIAL_MSG_TIMEOUT;
 243:./ros_lib/ros/node_handle.h ****         }
 244:./ros_lib/ros/node_handle.h ****         else if (hardware_.time() - c_time > (SYNC_SECONDS * 1000))
 245:./ros_lib/ros/node_handle.h ****         {
 246:./ros_lib/ros/node_handle.h ****           /* We have been stuck in spinOnce too long, return error */
 247:./ros_lib/ros/node_handle.h ****           configured_ = false;
 248:./ros_lib/ros/node_handle.h ****           return SPIN_TIMEOUT;
 249:./ros_lib/ros/node_handle.h ****         }
 250:./ros_lib/ros/node_handle.h ****       }
 251:./ros_lib/ros/node_handle.h ****       else if (mode_ == MODE_PROTOCOL_VER)
 252:./ros_lib/ros/node_handle.h ****       {
 253:./ros_lib/ros/node_handle.h ****         if (data == PROTOCOL_VER)
 254:./ros_lib/ros/node_handle.h ****         {
 255:./ros_lib/ros/node_handle.h ****           mode_++;
 256:./ros_lib/ros/node_handle.h ****         }
 257:./ros_lib/ros/node_handle.h ****         else
 258:./ros_lib/ros/node_handle.h ****         {
 259:./ros_lib/ros/node_handle.h ****           mode_ = MODE_FIRST_FF;
 260:./ros_lib/ros/node_handle.h ****           if (configured_ == false)
 261:./ros_lib/ros/node_handle.h ****             requestSyncTime();  /* send a msg back showing our protocol version */
 262:./ros_lib/ros/node_handle.h ****         }
 263:./ros_lib/ros/node_handle.h ****       }
 264:./ros_lib/ros/node_handle.h ****       else if (mode_ == MODE_SIZE_L)      /* bottom half of message size */
 265:./ros_lib/ros/node_handle.h ****       {
 266:./ros_lib/ros/node_handle.h ****         bytes_ = data;
 267:./ros_lib/ros/node_handle.h ****         index_ = 0;
 268:./ros_lib/ros/node_handle.h ****         mode_++;
 269:./ros_lib/ros/node_handle.h ****         checksum_ = data;               /* first byte for calculating size checksum */
 270:./ros_lib/ros/node_handle.h ****       }
 271:./ros_lib/ros/node_handle.h ****       else if (mode_ == MODE_SIZE_H)      /* top half of message size */
 272:./ros_lib/ros/node_handle.h ****       {
 273:./ros_lib/ros/node_handle.h ****         bytes_ += data << 8;
 274:./ros_lib/ros/node_handle.h ****         mode_++;
 275:./ros_lib/ros/node_handle.h ****       }
 276:./ros_lib/ros/node_handle.h ****       else if (mode_ == MODE_SIZE_CHECKSUM)
 277:./ros_lib/ros/node_handle.h ****       {
 278:./ros_lib/ros/node_handle.h ****         if ((checksum_ % 256) == 255)
 279:./ros_lib/ros/node_handle.h ****           mode_++;
 280:./ros_lib/ros/node_handle.h ****         else
 281:./ros_lib/ros/node_handle.h ****           mode_ = MODE_FIRST_FF;          /* Abandon the frame if the msg len is wrong */
 282:./ros_lib/ros/node_handle.h ****       }
 283:./ros_lib/ros/node_handle.h ****       else if (mode_ == MODE_TOPIC_L)     /* bottom half of topic id */
 284:./ros_lib/ros/node_handle.h ****       {
 285:./ros_lib/ros/node_handle.h ****         topic_ = data;
 286:./ros_lib/ros/node_handle.h ****         mode_++;
 287:./ros_lib/ros/node_handle.h ****         checksum_ = data;               /* first byte included in checksum */
 288:./ros_lib/ros/node_handle.h ****       }
 289:./ros_lib/ros/node_handle.h ****       else if (mode_ == MODE_TOPIC_H)     /* top half of topic id */
 290:./ros_lib/ros/node_handle.h ****       {
 291:./ros_lib/ros/node_handle.h ****         topic_ += data << 8;
 292:./ros_lib/ros/node_handle.h ****         mode_ = MODE_MESSAGE;
 293:./ros_lib/ros/node_handle.h ****         if (bytes_ == 0)
 294:./ros_lib/ros/node_handle.h ****           mode_ = MODE_MSG_CHECKSUM;
 295:./ros_lib/ros/node_handle.h ****       }
 296:./ros_lib/ros/node_handle.h ****       else if (mode_ == MODE_MSG_CHECKSUM)    /* do checksum */
 297:./ros_lib/ros/node_handle.h ****       {
 298:./ros_lib/ros/node_handle.h ****         mode_ = MODE_FIRST_FF;
 299:./ros_lib/ros/node_handle.h ****         if ((checksum_ % 256) == 255)
 300:./ros_lib/ros/node_handle.h ****         {
 301:./ros_lib/ros/node_handle.h ****           if (topic_ == TopicInfo::ID_PUBLISHER)
 302:./ros_lib/ros/node_handle.h ****           {
 303:./ros_lib/ros/node_handle.h ****             requestSyncTime();
 304:./ros_lib/ros/node_handle.h ****             negotiateTopics();
 305:./ros_lib/ros/node_handle.h ****             last_sync_time = c_time;
 306:./ros_lib/ros/node_handle.h ****             last_sync_receive_time = c_time;
 307:./ros_lib/ros/node_handle.h ****             return SPIN_ERR;
 308:./ros_lib/ros/node_handle.h ****           }
 309:./ros_lib/ros/node_handle.h ****           else if (topic_ == TopicInfo::ID_TIME)
 310:./ros_lib/ros/node_handle.h ****           {
 311:./ros_lib/ros/node_handle.h ****             saw_time_msg = true;
 312:./ros_lib/ros/node_handle.h ****             syncTime(message_in);
 313:./ros_lib/ros/node_handle.h ****           }
 314:./ros_lib/ros/node_handle.h ****           else if (topic_ == TopicInfo::ID_PARAMETER_REQUEST)
 315:./ros_lib/ros/node_handle.h ****           {
 316:./ros_lib/ros/node_handle.h ****             req_param_resp.deserialize(message_in);
 317:./ros_lib/ros/node_handle.h ****             param_received = true;
 318:./ros_lib/ros/node_handle.h ****           }
 319:./ros_lib/ros/node_handle.h ****           else if (topic_ == TopicInfo::ID_TX_STOP)
 320:./ros_lib/ros/node_handle.h ****           {
 321:./ros_lib/ros/node_handle.h ****             configured_ = false;
 322:./ros_lib/ros/node_handle.h ****             tx_stop_requested = true;
 323:./ros_lib/ros/node_handle.h ****           }
 324:./ros_lib/ros/node_handle.h ****           else
 325:./ros_lib/ros/node_handle.h ****           {
 326:./ros_lib/ros/node_handle.h ****             if (subscribers[topic_ - 100])
 327:./ros_lib/ros/node_handle.h ****               subscribers[topic_ - 100]->callback(message_in);
 328:./ros_lib/ros/node_handle.h ****           }
 329:./ros_lib/ros/node_handle.h ****         }
 330:./ros_lib/ros/node_handle.h ****       }
 331:./ros_lib/ros/node_handle.h ****     }
 332:./ros_lib/ros/node_handle.h **** 
 333:./ros_lib/ros/node_handle.h ****     /* occasionally sync time */
 334:./ros_lib/ros/node_handle.h ****     if (configured_ && ((c_time - last_sync_time) > (SYNC_SECONDS * 500)))
 335:./ros_lib/ros/node_handle.h ****     {
 336:./ros_lib/ros/node_handle.h ****       requestSyncTime();
 337:./ros_lib/ros/node_handle.h ****       last_sync_time = c_time;
 338:./ros_lib/ros/node_handle.h ****     }
 339:./ros_lib/ros/node_handle.h **** 
 340:./ros_lib/ros/node_handle.h ****     return saw_time_msg ? SPIN_TIME_RECV : (tx_stop_requested ? SPIN_TX_STOP_REQUESTED : SPIN_OK);
 341:./ros_lib/ros/node_handle.h ****   }
 342:./ros_lib/ros/node_handle.h **** 
 343:./ros_lib/ros/node_handle.h **** 
 344:./ros_lib/ros/node_handle.h ****   /* Are we connected to the PC? */
 345:./ros_lib/ros/node_handle.h ****   virtual bool connected() override
 762               		.loc 7 345 0
 763               		.cfi_startproc
 764               	.LVL59:
 765               	/* prologue: function */
 766               	/* frame size = 0 */
 767               	/* stack size = 0 */
 768               	.L__stack_usage = 0
 346:./ros_lib/ros/node_handle.h ****   {
 347:./ros_lib/ros/node_handle.h ****     return configured_;
 769               		.loc 7 347 0
 770 0000 8F57      		subi r24,127
 771 0002 9B4F      		sbci r25,-5
 772               	.LVL60:
 348:./ros_lib/ros/node_handle.h ****   };
 773               		.loc 7 348 0
 774 0004 FC01      		movw r30,r24
 775 0006 8081      		ld r24,Z
 776               	.LVL61:
 777 0008 0895      		ret
 778               		.cfi_endproc
 779               	.LFE176:
 781               		.text
 782               	.global	_Z9messageCbRKN10kitty_msgs10KittyStateE
 784               	_Z9messageCbRKN10kitty_msgs10KittyStateE:
 785               	.LFB150:
 786               		.file 8 "avr_subscriber.cpp"
   1:avr_subscriber.cpp **** #include "ros.h"
   2:avr_subscriber.cpp **** // #include "std_msgs/Float32MultiArray.h"
   3:avr_subscriber.cpp **** #include "kitty_msgs/KittyState.h"
   4:avr_subscriber.cpp **** 
   5:avr_subscriber.cpp **** // Include C headers (ie, non C++ headers) in this block
   6:avr_subscriber.cpp **** extern "C"
   7:avr_subscriber.cpp **** {
   8:avr_subscriber.cpp **** #include <util/delay.h>
   9:avr_subscriber.cpp **** #include "dc_step/st_mot.h"
  10:avr_subscriber.cpp **** #include "dc_step/dc_motor.h"
  11:avr_subscriber.cpp **** #include "dc_step/utils.h"
  12:avr_subscriber.cpp **** #include "dc_step/adc.h"
  13:avr_subscriber.cpp **** 
  14:avr_subscriber.cpp **** }
  15:avr_subscriber.cpp **** 
  16:avr_subscriber.cpp **** void InitAll(void);
  17:avr_subscriber.cpp **** 
  18:avr_subscriber.cpp **** // Needed for AVR to use virtual functions
  19:avr_subscriber.cpp **** extern "C" void __cxa_pure_virtual(void);
  20:avr_subscriber.cpp **** void __cxa_pure_virtual(void) {}
  21:avr_subscriber.cpp **** 
  22:avr_subscriber.cpp **** ros::NodeHandle nh;
  23:avr_subscriber.cpp **** 
  24:avr_subscriber.cpp **** void messageCb(const kitty_msgs::KittyState &speed_msg)
  25:avr_subscriber.cpp **** {
 787               		.loc 8 25 0
 788               		.cfi_startproc
 789               	.LVL62:
 790 0000 CF93      		push r28
 791               	.LCFI4:
 792               		.cfi_def_cfa_offset 4
 793               		.cfi_offset 28, -3
 794 0002 DF93      		push r29
 795               	.LCFI5:
 796               		.cfi_def_cfa_offset 5
 797               		.cfi_offset 29, -4
 798               	/* prologue: function */
 799               	/* frame size = 0 */
 800               	/* stack size = 2 */
 801               	.L__stack_usage = 2
 802 0004 EC01      		movw r28,r24
  26:avr_subscriber.cpp ****   SetSpeed(speed_msg.rotation_speed);
 803               		.loc 8 26 0
 804 0006 6A85      		ldd r22,Y+10
 805 0008 7B85      		ldd r23,Y+11
 806 000a 8C85      		ldd r24,Y+12
 807 000c 9D85      		ldd r25,Y+13
 808 000e 0E94 0000 		call SetSpeed
 809               	.LVL63:
  27:avr_subscriber.cpp ****   SetAngle(speed_msg.angle_steering);
 810               		.loc 8 27 0
 811 0012 6E85      		ldd r22,Y+14
 812 0014 7F85      		ldd r23,Y+15
 813 0016 8889      		ldd r24,Y+16
 814 0018 9989      		ldd r25,Y+17
 815               	/* epilogue start */
  28:avr_subscriber.cpp **** }
 816               		.loc 8 28 0
 817 001a DF91      		pop r29
 818 001c CF91      		pop r28
 819               	.LVL64:
  27:avr_subscriber.cpp ****   SetAngle(speed_msg.angle_steering);
 820               		.loc 8 27 0
 821 001e 0C94 0000 		jmp SetAngle
 822               	.LVL65:
 823               		.cfi_endproc
 824               	.LFE150:
 826               		.section	.rodata.str1.1
 827               	.LC9:
 828 00f5 4D65 7373 		.string	"Message from device dropped: message larger than buffer."
 828      6167 6520 
 828      6672 6F6D 
 828      2064 6576 
 828      6963 6520 
 829               		.section	.text._ZN3ros11NodeHandle_I18Atmega2560HardwareLi25ELi25ELi512ELi512EE7publishEiPKNS_3Msg
 830               		.weak	_ZN3ros11NodeHandle_I18Atmega2560HardwareLi25ELi25ELi512ELi512EE7publishEiPKNS_3MsgE
 832               	_ZN3ros11NodeHandle_I18Atmega2560HardwareLi25ELi25ELi512ELi512EE7publishEiPKNS_3MsgE:
 833               	.LFB167:
 349:./ros_lib/ros/node_handle.h **** 
 350:./ros_lib/ros/node_handle.h ****   /********************************************************************
 351:./ros_lib/ros/node_handle.h ****    * Time functions
 352:./ros_lib/ros/node_handle.h ****    */
 353:./ros_lib/ros/node_handle.h **** 
 354:./ros_lib/ros/node_handle.h ****   void requestSyncTime()
 355:./ros_lib/ros/node_handle.h ****   {
 356:./ros_lib/ros/node_handle.h ****     std_msgs::Time t;
 357:./ros_lib/ros/node_handle.h ****     publish(TopicInfo::ID_TIME, &t);
 358:./ros_lib/ros/node_handle.h ****     rt_time = hardware_.time();
 359:./ros_lib/ros/node_handle.h ****   }
 360:./ros_lib/ros/node_handle.h **** 
 361:./ros_lib/ros/node_handle.h ****   void syncTime(uint8_t * data)
 362:./ros_lib/ros/node_handle.h ****   {
 363:./ros_lib/ros/node_handle.h ****     std_msgs::Time t;
 364:./ros_lib/ros/node_handle.h ****     uint32_t offset = hardware_.time() - rt_time;
 365:./ros_lib/ros/node_handle.h **** 
 366:./ros_lib/ros/node_handle.h ****     t.deserialize(data);
 367:./ros_lib/ros/node_handle.h ****     t.data.sec += offset / 1000;
 368:./ros_lib/ros/node_handle.h ****     t.data.nsec += (offset % 1000) * 1000000UL;
 369:./ros_lib/ros/node_handle.h **** 
 370:./ros_lib/ros/node_handle.h ****     this->setNow(t.data);
 371:./ros_lib/ros/node_handle.h ****     last_sync_receive_time = hardware_.time();
 372:./ros_lib/ros/node_handle.h ****   }
 373:./ros_lib/ros/node_handle.h **** 
 374:./ros_lib/ros/node_handle.h ****   Time now()
 375:./ros_lib/ros/node_handle.h ****   {
 376:./ros_lib/ros/node_handle.h ****     uint32_t ms = hardware_.time();
 377:./ros_lib/ros/node_handle.h ****     Time current_time;
 378:./ros_lib/ros/node_handle.h ****     current_time.sec = ms / 1000 + sec_offset;
 379:./ros_lib/ros/node_handle.h ****     current_time.nsec = (ms % 1000) * 1000000UL + nsec_offset;
 380:./ros_lib/ros/node_handle.h ****     normalizeSecNSec(current_time.sec, current_time.nsec);
 381:./ros_lib/ros/node_handle.h ****     return current_time;
 382:./ros_lib/ros/node_handle.h ****   }
 383:./ros_lib/ros/node_handle.h **** 
 384:./ros_lib/ros/node_handle.h ****   void setNow(const Time & new_now)
 385:./ros_lib/ros/node_handle.h ****   {
 386:./ros_lib/ros/node_handle.h ****     uint32_t ms = hardware_.time();
 387:./ros_lib/ros/node_handle.h ****     sec_offset = new_now.sec - ms / 1000 - 1;
 388:./ros_lib/ros/node_handle.h ****     nsec_offset = new_now.nsec - (ms % 1000) * 1000000UL + 1000000000UL;
 389:./ros_lib/ros/node_handle.h ****     normalizeSecNSec(sec_offset, nsec_offset);
 390:./ros_lib/ros/node_handle.h ****   }
 391:./ros_lib/ros/node_handle.h **** 
 392:./ros_lib/ros/node_handle.h ****   /********************************************************************
 393:./ros_lib/ros/node_handle.h ****    * Topic Management
 394:./ros_lib/ros/node_handle.h ****    */
 395:./ros_lib/ros/node_handle.h **** 
 396:./ros_lib/ros/node_handle.h ****   /* Register a new publisher */
 397:./ros_lib/ros/node_handle.h ****   bool advertise(Publisher & p)
 398:./ros_lib/ros/node_handle.h ****   {
 399:./ros_lib/ros/node_handle.h ****     for (int i = 0; i < MAX_PUBLISHERS; i++)
 400:./ros_lib/ros/node_handle.h ****     {
 401:./ros_lib/ros/node_handle.h ****       if (publishers[i] == 0) // empty slot
 402:./ros_lib/ros/node_handle.h ****       {
 403:./ros_lib/ros/node_handle.h ****         publishers[i] = &p;
 404:./ros_lib/ros/node_handle.h ****         p.id_ = i + 100 + MAX_SUBSCRIBERS;
 405:./ros_lib/ros/node_handle.h ****         p.nh_ = this;
 406:./ros_lib/ros/node_handle.h ****         return true;
 407:./ros_lib/ros/node_handle.h ****       }
 408:./ros_lib/ros/node_handle.h ****     }
 409:./ros_lib/ros/node_handle.h ****     return false;
 410:./ros_lib/ros/node_handle.h ****   }
 411:./ros_lib/ros/node_handle.h **** 
 412:./ros_lib/ros/node_handle.h ****   /* Register a new subscriber */
 413:./ros_lib/ros/node_handle.h ****   bool subscribe(Subscriber_& s)
 414:./ros_lib/ros/node_handle.h ****   {
 415:./ros_lib/ros/node_handle.h ****     for (int i = 0; i < MAX_SUBSCRIBERS; i++)
 416:./ros_lib/ros/node_handle.h ****     {
 417:./ros_lib/ros/node_handle.h ****       if (subscribers[i] == 0) // empty slot
 418:./ros_lib/ros/node_handle.h ****       {
 419:./ros_lib/ros/node_handle.h ****         subscribers[i] = &s;
 420:./ros_lib/ros/node_handle.h ****         s.id_ = i + 100;
 421:./ros_lib/ros/node_handle.h ****         return true;
 422:./ros_lib/ros/node_handle.h ****       }
 423:./ros_lib/ros/node_handle.h ****     }
 424:./ros_lib/ros/node_handle.h ****     return false;
 425:./ros_lib/ros/node_handle.h ****   }
 426:./ros_lib/ros/node_handle.h **** 
 427:./ros_lib/ros/node_handle.h ****   /* Register a new Service Server */
 428:./ros_lib/ros/node_handle.h ****   template<typename MReq, typename MRes, typename ObjT>
 429:./ros_lib/ros/node_handle.h ****   bool advertiseService(ServiceServer<MReq, MRes, ObjT>& srv)
 430:./ros_lib/ros/node_handle.h ****   {
 431:./ros_lib/ros/node_handle.h ****     bool v = advertise(srv.pub);
 432:./ros_lib/ros/node_handle.h ****     bool w = subscribe(srv);
 433:./ros_lib/ros/node_handle.h ****     return v && w;
 434:./ros_lib/ros/node_handle.h ****   }
 435:./ros_lib/ros/node_handle.h **** 
 436:./ros_lib/ros/node_handle.h ****   /* Register a new Service Client */
 437:./ros_lib/ros/node_handle.h ****   template<typename MReq, typename MRes>
 438:./ros_lib/ros/node_handle.h ****   bool serviceClient(ServiceClient<MReq, MRes>& srv)
 439:./ros_lib/ros/node_handle.h ****   {
 440:./ros_lib/ros/node_handle.h ****     bool v = advertise(srv.pub);
 441:./ros_lib/ros/node_handle.h ****     bool w = subscribe(srv);
 442:./ros_lib/ros/node_handle.h ****     return v && w;
 443:./ros_lib/ros/node_handle.h ****   }
 444:./ros_lib/ros/node_handle.h **** 
 445:./ros_lib/ros/node_handle.h ****   void negotiateTopics()
 446:./ros_lib/ros/node_handle.h ****   {
 447:./ros_lib/ros/node_handle.h ****     rosserial_msgs::TopicInfo ti;
 448:./ros_lib/ros/node_handle.h ****     int i;
 449:./ros_lib/ros/node_handle.h ****     for (i = 0; i < MAX_PUBLISHERS; i++)
 450:./ros_lib/ros/node_handle.h ****     {
 451:./ros_lib/ros/node_handle.h ****       if (publishers[i] != 0) // non-empty slot
 452:./ros_lib/ros/node_handle.h ****       {
 453:./ros_lib/ros/node_handle.h ****         ti.topic_id = publishers[i]->id_;
 454:./ros_lib/ros/node_handle.h ****         ti.topic_name = (char *) publishers[i]->topic_;
 455:./ros_lib/ros/node_handle.h ****         ti.message_type = (char *) publishers[i]->msg_->getType();
 456:./ros_lib/ros/node_handle.h ****         ti.md5sum = (char *) publishers[i]->msg_->getMD5();
 457:./ros_lib/ros/node_handle.h ****         ti.buffer_size = OUTPUT_SIZE;
 458:./ros_lib/ros/node_handle.h ****         publish(publishers[i]->getEndpointType(), &ti);
 459:./ros_lib/ros/node_handle.h ****       }
 460:./ros_lib/ros/node_handle.h ****     }
 461:./ros_lib/ros/node_handle.h ****     for (i = 0; i < MAX_SUBSCRIBERS; i++)
 462:./ros_lib/ros/node_handle.h ****     {
 463:./ros_lib/ros/node_handle.h ****       if (subscribers[i] != 0) // non-empty slot
 464:./ros_lib/ros/node_handle.h ****       {
 465:./ros_lib/ros/node_handle.h ****         ti.topic_id = subscribers[i]->id_;
 466:./ros_lib/ros/node_handle.h ****         ti.topic_name = (char *) subscribers[i]->topic_;
 467:./ros_lib/ros/node_handle.h ****         ti.message_type = (char *) subscribers[i]->getMsgType();
 468:./ros_lib/ros/node_handle.h ****         ti.md5sum = (char *) subscribers[i]->getMsgMD5();
 469:./ros_lib/ros/node_handle.h ****         ti.buffer_size = INPUT_SIZE;
 470:./ros_lib/ros/node_handle.h ****         publish(subscribers[i]->getEndpointType(), &ti);
 471:./ros_lib/ros/node_handle.h ****       }
 472:./ros_lib/ros/node_handle.h ****     }
 473:./ros_lib/ros/node_handle.h ****     configured_ = true;
 474:./ros_lib/ros/node_handle.h ****   }
 475:./ros_lib/ros/node_handle.h **** 
 476:./ros_lib/ros/node_handle.h ****   virtual int publish(int id, const Msg * msg) override
 834               		.loc 7 476 0
 835               		.cfi_startproc
 836               	.LVL66:
 837 0000 CF92      		push r12
 838               	.LCFI6:
 839               		.cfi_def_cfa_offset 4
 840               		.cfi_offset 12, -3
 841 0002 DF92      		push r13
 842               	.LCFI7:
 843               		.cfi_def_cfa_offset 5
 844               		.cfi_offset 13, -4
 845 0004 EF92      		push r14
 846               	.LCFI8:
 847               		.cfi_def_cfa_offset 6
 848               		.cfi_offset 14, -5
 849 0006 FF92      		push r15
 850               	.LCFI9:
 851               		.cfi_def_cfa_offset 7
 852               		.cfi_offset 15, -6
 853 0008 0F93      		push r16
 854               	.LCFI10:
 855               		.cfi_def_cfa_offset 8
 856               		.cfi_offset 16, -7
 857 000a 1F93      		push r17
 858               	.LCFI11:
 859               		.cfi_def_cfa_offset 9
 860               		.cfi_offset 17, -8
 861 000c CF93      		push r28
 862               	.LCFI12:
 863               		.cfi_def_cfa_offset 10
 864               		.cfi_offset 28, -9
 865 000e DF93      		push r29
 866               	.LCFI13:
 867               		.cfi_def_cfa_offset 11
 868               		.cfi_offset 29, -10
 869 0010 00D0      		rcall .
 870 0012 1F92      		push __zero_reg__
 871 0014 1F92      		push __zero_reg__
 872               	.LCFI14:
 873               		.cfi_def_cfa_offset 16
 874 0016 CDB7      		in r28,__SP_L__
 875 0018 DEB7      		in r29,__SP_H__
 876               	.LCFI15:
 877               		.cfi_def_cfa_register 28
 878               	/* prologue: function */
 879               	/* frame size = 5 */
 880               	/* stack size = 13 */
 881               	.L__stack_usage = 13
 477:./ros_lib/ros/node_handle.h ****   {
 478:./ros_lib/ros/node_handle.h ****     if (id >= 100 && !configured_)
 882               		.loc 7 478 0
 883 001a 6436      		cpi r22,100
 884 001c 7105      		cpc r23,__zero_reg__
 885 001e 04F0      		brlt .L22
 886               		.loc 7 478 0 is_stmt 0 discriminator 1
 887 0020 FC01      		movw r30,r24
 888 0022 EF57      		subi r30,127
 889 0024 FB4F      		sbci r31,-5
 890 0026 2081      		ld r18,Z
 891 0028 2223      		tst r18
 892 002a 01F4      		brne .+2
 893 002c 00C0      		rjmp .L28
 894               	.L22:
 895 002e DA01      		movw r26,r20
 896 0030 7B01      		movw r14,r22
 897 0032 8C01      		movw r16,r24
 479:./ros_lib/ros/node_handle.h ****       return 0;
 480:./ros_lib/ros/node_handle.h **** 
 481:./ros_lib/ros/node_handle.h ****     /* serialize message */
 482:./ros_lib/ros/node_handle.h ****     int l = msg->serialize(message_out + 7);
 898               		.loc 7 482 0 is_stmt 1
 899 0034 BC01      		movw r22,r24
 900               	.LVL67:
 901 0036 665E      		subi r22,-26
 902 0038 7D4F      		sbci r23,-3
 903 003a ED91      		ld r30,X+
 904 003c FC91      		ld r31,X
 905 003e 0190      		ld __tmp_reg__,Z+
 906 0040 F081      		ld r31,Z
 907 0042 E02D      		mov r30,__tmp_reg__
 908 0044 CA01      		movw r24,r20
 909               	.LVL68:
 910 0046 1995      		eicall
 911               	.LVL69:
 483:./ros_lib/ros/node_handle.h **** 
 484:./ros_lib/ros/node_handle.h ****     /* setup the header */
 485:./ros_lib/ros/node_handle.h ****     message_out[0] = 0xff;
 912               		.loc 7 485 0
 913 0048 6801      		movw r12,r16
 914 004a 2DEE      		ldi r18,-19
 915 004c C21A      		sub r12,r18
 916 004e 2DEF      		ldi r18,-3
 917 0050 D20A      		sbc r13,r18
 918 0052 2FEF      		ldi r18,lo8(-1)
 919 0054 D601      		movw r26,r12
 920 0056 2C93      		st X,r18
 486:./ros_lib/ros/node_handle.h ****     message_out[1] = PROTOCOL_VER;
 921               		.loc 7 486 0
 922 0058 F801      		movw r30,r16
 923 005a EC5E      		subi r30,-20
 924 005c FD4F      		sbci r31,-3
 925 005e 2EEF      		ldi r18,lo8(-2)
 926 0060 2083      		st Z,r18
 487:./ros_lib/ros/node_handle.h ****     message_out[2] = (uint8_t)((uint16_t)l & 255);
 927               		.loc 7 487 0
 928 0062 3196      		adiw r30,1
 929 0064 8083      		st Z,r24
 488:./ros_lib/ros/node_handle.h ****     message_out[3] = (uint8_t)((uint16_t)l >> 8);
 930               		.loc 7 488 0
 931 0066 3196      		adiw r30,1
 932 0068 9083      		st Z,r25
 489:./ros_lib/ros/node_handle.h ****     message_out[4] = 255 - ((message_out[2] + message_out[3]) % 256);
 933               		.loc 7 489 0
 934 006a 3196      		adiw r30,1
 935 006c 292F      		mov r18,r25
 936 006e 280F      		add r18,r24
 937 0070 2095      		com r18
 938 0072 2083      		st Z,r18
 490:./ros_lib/ros/node_handle.h ****     message_out[5] = (uint8_t)((int16_t)id & 255);
 939               		.loc 7 490 0
 940 0074 3196      		adiw r30,1
 941 0076 E082      		st Z,r14
 491:./ros_lib/ros/node_handle.h ****     message_out[6] = (uint8_t)((int16_t)id >> 8);
 942               		.loc 7 491 0
 943 0078 1696      		adiw r26,6
 944 007a FC92      		st X,r15
 945               	.LVL70:
 946               	.LBB96:
 492:./ros_lib/ros/node_handle.h **** 
 493:./ros_lib/ros/node_handle.h ****     /* calculate checksum */
 494:./ros_lib/ros/node_handle.h ****     int chk = 0;
 495:./ros_lib/ros/node_handle.h ****     for (int i = 5; i < l + 7; i++)
 947               		.loc 7 495 0
 948 007c 45E0      		ldi r20,lo8(5)
 949 007e 50E0      		ldi r21,0
 950               	.LBE96:
 494:./ros_lib/ros/node_handle.h ****     for (int i = 5; i < l + 7; i++)
 951               		.loc 7 494 0
 952 0080 20E0      		ldi r18,0
 953 0082 30E0      		ldi r19,0
 954               	.LBB97:
 955               		.loc 7 495 0
 956 0084 DC01      		movw r26,r24
 957 0086 1696      		adiw r26,6
 958               	.LVL71:
 959               	.L25:
 960               		.loc 7 495 0 is_stmt 0 discriminator 3
 961 0088 A417      		cp r26,r20
 962 008a B507      		cpc r27,r21
 963 008c 04F0      		brlt .L24
 496:./ros_lib/ros/node_handle.h ****       chk += message_out[i];
 964               		.loc 7 496 0 is_stmt 1 discriminator 2
 965 008e 6191      		ld r22,Z+
 966 0090 260F      		add r18,r22
 967 0092 311D      		adc r19,__zero_reg__
 968               	.LVL72:
 495:./ros_lib/ros/node_handle.h ****       chk += message_out[i];
 969               		.loc 7 495 0 discriminator 2
 970 0094 4F5F      		subi r20,-1
 971 0096 5F4F      		sbci r21,-1
 972               	.LVL73:
 973 0098 00C0      		rjmp .L25
 974               	.L24:
 975               	.LVL74:
 976               	.LBE97:
 497:./ros_lib/ros/node_handle.h ****     l += 7;
 498:./ros_lib/ros/node_handle.h ****     message_out[l++] = 255 - (chk % 256);
 977               		.loc 7 498 0
 978 009a 7C01      		movw r14,r24
 979               	.LVL75:
 980 009c B8E0      		ldi r27,8
 981 009e EB0E      		add r14,r27
 982 00a0 F11C      		adc r15,__zero_reg__
 983               	.LVL76:
 984 00a2 800F      		add r24,r16
 985 00a4 911F      		adc r25,r17
 986 00a6 FC01      		movw r30,r24
 987 00a8 E65E      		subi r30,-26
 988 00aa FD4F      		sbci r31,-3
 989 00ac 2095      		com r18
 990               	.LVL77:
 991 00ae 2083      		st Z,r18
 499:./ros_lib/ros/node_handle.h **** 
 500:./ros_lib/ros/node_handle.h ****     if (l <= OUTPUT_SIZE)
 992               		.loc 7 500 0
 993 00b0 E1E0      		ldi r30,1
 994 00b2 EE16      		cp r14,r30
 995 00b4 E2E0      		ldi r30,2
 996 00b6 FE06      		cpc r15,r30
 997 00b8 04F4      		brge .L26
 998               	.LVL78:
 501:./ros_lib/ros/node_handle.h ****     {
 502:./ros_lib/ros/node_handle.h ****       hardware_.write(message_out, l);
 999               		.loc 7 502 0
 1000 00ba 8601      		movw r16,r12
 1001               	.LVL79:
 1002               	.L27:
 1003               	.LBB98:
 1004               	.LBB99:
 1005               		.file 9 "Atmega2560Hardware.h"
   1:Atmega2560Hardware.h **** #ifndef _ATMEGA2560_HARDWARE_H
   2:Atmega2560Hardware.h **** #define _ATMEGA2560_HARDWARE_H
   3:Atmega2560Hardware.h **** 
   4:Atmega2560Hardware.h **** extern "C"
   5:Atmega2560Hardware.h **** {
   6:Atmega2560Hardware.h ****   #include <avr/interrupt.h>
   7:Atmega2560Hardware.h ****   #include <avr/wdt.h>
   8:Atmega2560Hardware.h ****   #include "avr_time.h"
   9:Atmega2560Hardware.h ****   #include "avr_uart.h"
  10:Atmega2560Hardware.h **** }
  11:Atmega2560Hardware.h **** 
  12:Atmega2560Hardware.h **** class Atmega2560Hardware {
  13:Atmega2560Hardware.h ****   public:
  14:Atmega2560Hardware.h ****     Atmega2560Hardware() {}
  15:Atmega2560Hardware.h **** 
  16:Atmega2560Hardware.h **** 
  17:Atmega2560Hardware.h ****     // Initialize the AVR
  18:Atmega2560Hardware.h ****     void init()
  19:Atmega2560Hardware.h ****     {
  20:Atmega2560Hardware.h ****       wdt_disable();
  21:Atmega2560Hardware.h ****       avr_time_init();
  22:Atmega2560Hardware.h ****       avr_uart_init();
  23:Atmega2560Hardware.h ****       sei();
  24:Atmega2560Hardware.h ****     }
  25:Atmega2560Hardware.h **** 
  26:Atmega2560Hardware.h ****     // Read a byte of data from ROS connection.
  27:Atmega2560Hardware.h ****     // If no data, returns -1
  28:Atmega2560Hardware.h ****     int read()
  29:Atmega2560Hardware.h ****     {
  30:Atmega2560Hardware.h ****       return avr_uart_receive_byte();
  31:Atmega2560Hardware.h ****     }
  32:Atmega2560Hardware.h **** 
  33:Atmega2560Hardware.h **** 
  34:Atmega2560Hardware.h ****     // Send a byte of data to ROS connection
  35:Atmega2560Hardware.h ****     void write(uint8_t* data, int length)
  36:Atmega2560Hardware.h ****     {
  37:Atmega2560Hardware.h ****       for(int i = 0; i < length; i++)
 1006               		.loc 9 37 0
 1007 00bc C801      		movw r24,r16
 1008 00be 8C19      		sub r24,r12
 1009 00c0 9D09      		sbc r25,r13
 1010 00c2 8E15      		cp r24,r14
 1011 00c4 9F05      		cpc r25,r15
 1012 00c6 04F4      		brge .L29
  38:Atmega2560Hardware.h ****       {
  39:Atmega2560Hardware.h ****         avr_uart_send_byte(data[i]);
 1013               		.loc 9 39 0
 1014 00c8 D801      		movw r26,r16
 1015 00ca 8D91      		ld r24,X+
 1016 00cc 8D01      		movw r16,r26
 1017               	.LVL80:
 1018 00ce 0E94 0000 		call avr_uart_send_byte
 1019               	.LVL81:
 1020 00d2 00C0      		rjmp .L27
 1021               	.LVL82:
 1022               	.L26:
 1023               	.LBE99:
 1024               	.LBE98:
 1025               	.LBB101:
 1026               	.LBB102:
 1027               	.LBB103:
 1028               	.LBB104:
 1029               	.LBB105:
  27:./ros_lib/rosserial_msgs/Log.h ****     {
 1030               		.loc 3 27 0
 1031 00d4 80E0      		ldi r24,lo8(_ZTVN14rosserial_msgs3LogE+4)
 1032 00d6 90E0      		ldi r25,hi8(_ZTVN14rosserial_msgs3LogE+4)
 1033 00d8 9A83      		std Y+2,r25
 1034 00da 8983      		std Y+1,r24
 1035               	.LVL83:
 1036               	.LBE105:
 1037               	.LBE104:
 503:./ros_lib/ros/node_handle.h ****       return l;
 504:./ros_lib/ros/node_handle.h ****     }
 505:./ros_lib/ros/node_handle.h ****     else
 506:./ros_lib/ros/node_handle.h ****     {
 507:./ros_lib/ros/node_handle.h ****       logerror("Message from device dropped: message larger than buffer.");
 508:./ros_lib/ros/node_handle.h ****       return -1;
 509:./ros_lib/ros/node_handle.h ****     }
 510:./ros_lib/ros/node_handle.h ****   }
 511:./ros_lib/ros/node_handle.h **** 
 512:./ros_lib/ros/node_handle.h ****   /********************************************************************
 513:./ros_lib/ros/node_handle.h ****    * Logging
 514:./ros_lib/ros/node_handle.h ****    */
 515:./ros_lib/ros/node_handle.h **** 
 516:./ros_lib/ros/node_handle.h **** protected:
 517:./ros_lib/ros/node_handle.h ****   void log(char byte, const char * msg)
 518:./ros_lib/ros/node_handle.h ****   {
 519:./ros_lib/ros/node_handle.h ****     rosserial_msgs::Log l;
 520:./ros_lib/ros/node_handle.h ****     l.level = byte;
 1038               		.loc 7 520 0
 1039 00dc 83E0      		ldi r24,lo8(3)
 1040 00de 8B83      		std Y+3,r24
 521:./ros_lib/ros/node_handle.h ****     l.msg = (char*)msg;
 1041               		.loc 7 521 0
 1042 00e0 80E0      		ldi r24,lo8(.LC9)
 1043 00e2 90E0      		ldi r25,hi8(.LC9)
 1044 00e4 9D83      		std Y+5,r25
 1045 00e6 8C83      		std Y+4,r24
 522:./ros_lib/ros/node_handle.h ****     publish(rosserial_msgs::TopicInfo::ID_LOG, &l);
 1046               		.loc 7 522 0
 1047 00e8 D801      		movw r26,r16
 1048 00ea ED91      		ld r30,X+
 1049 00ec FC91      		ld r31,X
 1050 00ee 0190      		ld __tmp_reg__,Z+
 1051 00f0 F081      		ld r31,Z
 1052 00f2 E02D      		mov r30,__tmp_reg__
 1053 00f4 AE01      		movw r20,r28
 1054               	.LVL84:
 1055 00f6 4F5F      		subi r20,-1
 1056 00f8 5F4F      		sbci r21,-1
 1057 00fa 67E0      		ldi r22,lo8(7)
 1058 00fc 70E0      		ldi r23,0
 1059 00fe C801      		movw r24,r16
 1060 0100 1995      		eicall
 1061               	.LVL85:
 1062               	.LBE103:
 1063               	.LBE102:
 1064               	.LBE101:
 508:./ros_lib/ros/node_handle.h ****     }
 1065               		.loc 7 508 0
 1066 0102 8FEF      		ldi r24,lo8(-1)
 1067 0104 9FEF      		ldi r25,lo8(-1)
 1068 0106 00C0      		rjmp .L23
 1069               	.LVL86:
 1070               	.L28:
 479:./ros_lib/ros/node_handle.h **** 
 1071               		.loc 7 479 0
 1072 0108 80E0      		ldi r24,0
 1073               	.LVL87:
 1074 010a 90E0      		ldi r25,0
 1075 010c 00C0      		rjmp .L23
 1076               	.LVL88:
 1077               	.L29:
 1078               	.LBB106:
 1079               	.LBB100:
  37:Atmega2560Hardware.h ****       {
 1080               		.loc 9 37 0
 1081 010e C701      		movw r24,r14
 1082               	.LVL89:
 1083               	.L23:
 1084               	/* epilogue start */
 1085               	.LBE100:
 1086               	.LBE106:
 510:./ros_lib/ros/node_handle.h **** 
 1087               		.loc 7 510 0
 1088 0110 0F90      		pop __tmp_reg__
 1089 0112 0F90      		pop __tmp_reg__
 1090 0114 0F90      		pop __tmp_reg__
 1091 0116 0F90      		pop __tmp_reg__
 1092 0118 0F90      		pop __tmp_reg__
 1093 011a DF91      		pop r29
 1094 011c CF91      		pop r28
 1095 011e 1F91      		pop r17
 1096 0120 0F91      		pop r16
 1097 0122 FF90      		pop r15
 1098 0124 EF90      		pop r14
 1099 0126 DF90      		pop r13
 1100 0128 CF90      		pop r12
 1101 012a 0895      		ret
 1102               		.cfi_endproc
 1103               	.LFE167:
 1105               		.text
 1106               	.global	__cxa_pure_virtual
 1108               	__cxa_pure_virtual:
 1109               	.LFB143:
  20:avr_subscriber.cpp **** 
 1110               		.loc 8 20 0
 1111               		.cfi_startproc
 1112               	/* prologue: function */
 1113               	/* frame size = 0 */
 1114               	/* stack size = 0 */
 1115               	.L__stack_usage = 0
 1116 0022 0895      		ret
 1117               		.cfi_endproc
 1118               	.LFE143:
 1120               	.global	_Z7InitAllv
 1122               	_Z7InitAllv:
 1123               	.LFB152:
  29:avr_subscriber.cpp **** 
  30:avr_subscriber.cpp **** ros::Subscriber<kitty_msgs::KittyState> sub("set_speed", &messageCb);
  31:avr_subscriber.cpp **** 
  32:avr_subscriber.cpp **** int main()
  33:avr_subscriber.cpp **** {
  34:avr_subscriber.cpp ****   uint32_t lasttime = 0UL;
  35:avr_subscriber.cpp ****   // Initialize ROS
  36:avr_subscriber.cpp ****   nh.initNode();
  37:avr_subscriber.cpp ****   nh.subscribe(sub);
  38:avr_subscriber.cpp ****   InitAll();
  39:avr_subscriber.cpp **** 
  40:avr_subscriber.cpp ****   while (1)
  41:avr_subscriber.cpp ****   {
  42:avr_subscriber.cpp ****     // Send the message every second
  43:avr_subscriber.cpp ****     // if(avr_time_now() - lasttime > my_delay)
  44:avr_subscriber.cpp ****     // {
  45:avr_subscriber.cpp ****     //   PORTB ^= (1 << PB7);
  46:avr_subscriber.cpp ****     //   lasttime = avr_time_now();
  47:avr_subscriber.cpp **** 
  48:avr_subscriber.cpp ****     // }
  49:avr_subscriber.cpp ****     nh.spinOnce();
  50:avr_subscriber.cpp ****   }
  51:avr_subscriber.cpp **** 
  52:avr_subscriber.cpp ****   return 0;
  53:avr_subscriber.cpp **** }
  54:avr_subscriber.cpp **** 
  55:avr_subscriber.cpp **** 
  56:avr_subscriber.cpp **** void InitAll(void)
  57:avr_subscriber.cpp **** {
 1124               		.loc 8 57 0
 1125               		.cfi_startproc
 1126               	/* prologue: function */
 1127               	/* frame size = 0 */
 1128               	/* stack size = 0 */
 1129               	.L__stack_usage = 0
  58:avr_subscriber.cpp ****   DDRB |= (1 << 7);
 1130               		.loc 8 58 0
 1131 0024 279A      		sbi 0x4,7
  59:avr_subscriber.cpp ****   AdcInit();
 1132               		.loc 8 59 0
 1133 0026 0E94 0000 		call AdcInit
 1134               	.LVL90:
  60:avr_subscriber.cpp ****   StMotInit();
 1135               		.loc 8 60 0
 1136 002a 0E94 0000 		call StMotInit
 1137               	.LVL91:
  61:avr_subscriber.cpp ****   DcMotInit();
 1138               		.loc 8 61 0
 1139 002e 0E94 0000 		call DcMotInit
 1140               	.LVL92:
 1141               	.LBB107:
 1142               	.LBB108:
 1143               		.file 10 "/usr/lib/avr/include/util/delay.h"
   1:/usr/lib/avr/include/util/delay.h **** /* Copyright (c) 2002, Marek Michalkiewicz
   2:/usr/lib/avr/include/util/delay.h ****    Copyright (c) 2004,2005,2007 Joerg Wunsch
   3:/usr/lib/avr/include/util/delay.h ****    Copyright (c) 2007  Florin-Viorel Petrov
   4:/usr/lib/avr/include/util/delay.h ****    All rights reserved.
   5:/usr/lib/avr/include/util/delay.h **** 
   6:/usr/lib/avr/include/util/delay.h ****    Redistribution and use in source and binary forms, with or without
   7:/usr/lib/avr/include/util/delay.h ****    modification, are permitted provided that the following conditions are met:
   8:/usr/lib/avr/include/util/delay.h **** 
   9:/usr/lib/avr/include/util/delay.h ****    * Redistributions of source code must retain the above copyright
  10:/usr/lib/avr/include/util/delay.h ****      notice, this list of conditions and the following disclaimer.
  11:/usr/lib/avr/include/util/delay.h **** 
  12:/usr/lib/avr/include/util/delay.h ****    * Redistributions in binary form must reproduce the above copyright
  13:/usr/lib/avr/include/util/delay.h ****      notice, this list of conditions and the following disclaimer in
  14:/usr/lib/avr/include/util/delay.h ****      the documentation and/or other materials provided with the
  15:/usr/lib/avr/include/util/delay.h ****      distribution.
  16:/usr/lib/avr/include/util/delay.h **** 
  17:/usr/lib/avr/include/util/delay.h ****    * Neither the name of the copyright holders nor the names of
  18:/usr/lib/avr/include/util/delay.h ****      contributors may be used to endorse or promote products derived
  19:/usr/lib/avr/include/util/delay.h ****      from this software without specific prior written permission.
  20:/usr/lib/avr/include/util/delay.h **** 
  21:/usr/lib/avr/include/util/delay.h ****   THIS SOFTWARE IS PROVIDED BY THE COPYRIGHT HOLDERS AND CONTRIBUTORS "AS IS"
  22:/usr/lib/avr/include/util/delay.h ****   AND ANY EXPRESS OR IMPLIED WARRANTIES, INCLUDING, BUT NOT LIMITED TO, THE
  23:/usr/lib/avr/include/util/delay.h ****   IMPLIED WARRANTIES OF MERCHANTABILITY AND FITNESS FOR A PARTICULAR PURPOSE
  24:/usr/lib/avr/include/util/delay.h ****   ARE DISCLAIMED. IN NO EVENT SHALL THE COPYRIGHT OWNER OR CONTRIBUTORS BE
  25:/usr/lib/avr/include/util/delay.h ****   LIABLE FOR ANY DIRECT, INDIRECT, INCIDENTAL, SPECIAL, EXEMPLARY, OR
  26:/usr/lib/avr/include/util/delay.h ****   CONSEQUENTIAL DAMAGES (INCLUDING, BUT NOT LIMITED TO, PROCUREMENT OF
  27:/usr/lib/avr/include/util/delay.h ****   SUBSTITUTE GOODS OR SERVICES; LOSS OF USE, DATA, OR PROFITS; OR BUSINESS
  28:/usr/lib/avr/include/util/delay.h ****   INTERRUPTION) HOWEVER CAUSED AND ON ANY THEORY OF LIABILITY, WHETHER IN
  29:/usr/lib/avr/include/util/delay.h ****   CONTRACT, STRICT LIABILITY, OR TORT (INCLUDING NEGLIGENCE OR OTHERWISE)
  30:/usr/lib/avr/include/util/delay.h ****   ARISING IN ANY WAY OUT OF THE USE OF THIS SOFTWARE, EVEN IF ADVISED OF THE
  31:/usr/lib/avr/include/util/delay.h ****   POSSIBILITY OF SUCH DAMAGE. */
  32:/usr/lib/avr/include/util/delay.h **** 
  33:/usr/lib/avr/include/util/delay.h **** /* $Id$ */
  34:/usr/lib/avr/include/util/delay.h **** 
  35:/usr/lib/avr/include/util/delay.h **** #ifndef _UTIL_DELAY_H_
  36:/usr/lib/avr/include/util/delay.h **** #define _UTIL_DELAY_H_ 1
  37:/usr/lib/avr/include/util/delay.h **** 
  38:/usr/lib/avr/include/util/delay.h **** #ifndef __DOXYGEN__
  39:/usr/lib/avr/include/util/delay.h **** #  ifndef __HAS_DELAY_CYCLES
  40:/usr/lib/avr/include/util/delay.h **** #    define __HAS_DELAY_CYCLES 1
  41:/usr/lib/avr/include/util/delay.h **** #  endif
  42:/usr/lib/avr/include/util/delay.h **** #endif  /* __DOXYGEN__ */
  43:/usr/lib/avr/include/util/delay.h **** 
  44:/usr/lib/avr/include/util/delay.h **** #include <inttypes.h>
  45:/usr/lib/avr/include/util/delay.h **** #include <util/delay_basic.h>
  46:/usr/lib/avr/include/util/delay.h **** #include <math.h>
  47:/usr/lib/avr/include/util/delay.h **** 
  48:/usr/lib/avr/include/util/delay.h **** /** \file */
  49:/usr/lib/avr/include/util/delay.h **** /** \defgroup util_delay <util/delay.h>: Convenience functions for busy-wait delay loops
  50:/usr/lib/avr/include/util/delay.h ****     \code
  51:/usr/lib/avr/include/util/delay.h ****     #define F_CPU 1000000UL  // 1 MHz
  52:/usr/lib/avr/include/util/delay.h ****     //#define F_CPU 14.7456E6
  53:/usr/lib/avr/include/util/delay.h ****     #include <util/delay.h>
  54:/usr/lib/avr/include/util/delay.h ****     \endcode
  55:/usr/lib/avr/include/util/delay.h **** 
  56:/usr/lib/avr/include/util/delay.h ****     \note As an alternative method, it is possible to pass the
  57:/usr/lib/avr/include/util/delay.h ****     F_CPU macro down to the compiler from the Makefile.
  58:/usr/lib/avr/include/util/delay.h ****     Obviously, in that case, no \c \#define statement should be
  59:/usr/lib/avr/include/util/delay.h ****     used.
  60:/usr/lib/avr/include/util/delay.h **** 
  61:/usr/lib/avr/include/util/delay.h ****     The functions in this header file are wrappers around the basic
  62:/usr/lib/avr/include/util/delay.h ****     busy-wait functions from <util/delay_basic.h>.  They are meant as
  63:/usr/lib/avr/include/util/delay.h ****     convenience functions where actual time values can be specified
  64:/usr/lib/avr/include/util/delay.h ****     rather than a number of cycles to wait for.  The idea behind is
  65:/usr/lib/avr/include/util/delay.h ****     that compile-time constant expressions will be eliminated by
  66:/usr/lib/avr/include/util/delay.h ****     compiler optimization so floating-point expressions can be used
  67:/usr/lib/avr/include/util/delay.h ****     to calculate the number of delay cycles needed based on the CPU
  68:/usr/lib/avr/include/util/delay.h ****     frequency passed by the macro F_CPU.
  69:/usr/lib/avr/include/util/delay.h **** 
  70:/usr/lib/avr/include/util/delay.h ****     \note In order for these functions to work as intended, compiler
  71:/usr/lib/avr/include/util/delay.h ****     optimizations <em>must</em> be enabled, and the delay time
  72:/usr/lib/avr/include/util/delay.h ****     <em>must</em> be an expression that is a known constant at
  73:/usr/lib/avr/include/util/delay.h ****     compile-time.  If these requirements are not met, the resulting
  74:/usr/lib/avr/include/util/delay.h ****     delay will be much longer (and basically unpredictable), and
  75:/usr/lib/avr/include/util/delay.h ****     applications that otherwise do not use floating-point calculations
  76:/usr/lib/avr/include/util/delay.h ****     will experience severe code bloat by the floating-point library
  77:/usr/lib/avr/include/util/delay.h ****     routines linked into the application.
  78:/usr/lib/avr/include/util/delay.h **** 
  79:/usr/lib/avr/include/util/delay.h ****     The functions available allow the specification of microsecond, and
  80:/usr/lib/avr/include/util/delay.h ****     millisecond delays directly, using the application-supplied macro
  81:/usr/lib/avr/include/util/delay.h ****     F_CPU as the CPU clock frequency (in Hertz).
  82:/usr/lib/avr/include/util/delay.h **** 
  83:/usr/lib/avr/include/util/delay.h **** */
  84:/usr/lib/avr/include/util/delay.h **** 
  85:/usr/lib/avr/include/util/delay.h **** #if !defined(__DOXYGEN__)
  86:/usr/lib/avr/include/util/delay.h **** static __inline__ void _delay_us(double __us) __attribute__((__always_inline__));
  87:/usr/lib/avr/include/util/delay.h **** static __inline__ void _delay_ms(double __ms) __attribute__((__always_inline__));
  88:/usr/lib/avr/include/util/delay.h **** #endif
  89:/usr/lib/avr/include/util/delay.h **** 
  90:/usr/lib/avr/include/util/delay.h **** #ifndef F_CPU
  91:/usr/lib/avr/include/util/delay.h **** /* prevent compiler error by supplying a default */
  92:/usr/lib/avr/include/util/delay.h **** # warning "F_CPU not defined for <util/delay.h>"
  93:/usr/lib/avr/include/util/delay.h **** /** \ingroup util_delay
  94:/usr/lib/avr/include/util/delay.h ****     \def F_CPU
  95:/usr/lib/avr/include/util/delay.h ****     \brief CPU frequency in Hz
  96:/usr/lib/avr/include/util/delay.h **** 
  97:/usr/lib/avr/include/util/delay.h ****     The macro F_CPU specifies the CPU frequency to be considered by
  98:/usr/lib/avr/include/util/delay.h ****     the delay macros.  This macro is normally supplied by the
  99:/usr/lib/avr/include/util/delay.h ****     environment (e.g. from within a project header, or the project's
 100:/usr/lib/avr/include/util/delay.h ****     Makefile).  The value 1 MHz here is only provided as a "vanilla"
 101:/usr/lib/avr/include/util/delay.h ****     fallback if no such user-provided definition could be found.
 102:/usr/lib/avr/include/util/delay.h **** 
 103:/usr/lib/avr/include/util/delay.h ****     In terms of the delay functions, the CPU frequency can be given as
 104:/usr/lib/avr/include/util/delay.h ****     a floating-point constant (e.g. 3.6864E6 for 3.6864 MHz).
 105:/usr/lib/avr/include/util/delay.h ****     However, the macros in <util/setbaud.h> require it to be an
 106:/usr/lib/avr/include/util/delay.h ****     integer value.
 107:/usr/lib/avr/include/util/delay.h ****  */
 108:/usr/lib/avr/include/util/delay.h **** # define F_CPU 1000000UL
 109:/usr/lib/avr/include/util/delay.h **** #endif
 110:/usr/lib/avr/include/util/delay.h **** 
 111:/usr/lib/avr/include/util/delay.h **** #ifndef __OPTIMIZE__
 112:/usr/lib/avr/include/util/delay.h **** # warning "Compiler optimizations disabled; functions from <util/delay.h> won't work as designed"
 113:/usr/lib/avr/include/util/delay.h **** #endif
 114:/usr/lib/avr/include/util/delay.h **** 
 115:/usr/lib/avr/include/util/delay.h **** #if __HAS_DELAY_CYCLES && defined(__OPTIMIZE__) && \
 116:/usr/lib/avr/include/util/delay.h ****   !defined(__DELAY_BACKWARD_COMPATIBLE__) &&	   \
 117:/usr/lib/avr/include/util/delay.h ****   __STDC_HOSTED__
 118:/usr/lib/avr/include/util/delay.h **** #  include <math.h>
 119:/usr/lib/avr/include/util/delay.h **** #endif
 120:/usr/lib/avr/include/util/delay.h **** 
 121:/usr/lib/avr/include/util/delay.h **** /**
 122:/usr/lib/avr/include/util/delay.h ****    \ingroup util_delay
 123:/usr/lib/avr/include/util/delay.h **** 
 124:/usr/lib/avr/include/util/delay.h ****    Perform a delay of \c __ms milliseconds, using _delay_loop_2().
 125:/usr/lib/avr/include/util/delay.h **** 
 126:/usr/lib/avr/include/util/delay.h ****    The macro F_CPU is supposed to be defined to a
 127:/usr/lib/avr/include/util/delay.h ****    constant defining the CPU clock frequency (in Hertz).
 128:/usr/lib/avr/include/util/delay.h **** 
 129:/usr/lib/avr/include/util/delay.h ****    The maximal possible delay is 262.14 ms / F_CPU in MHz.
 130:/usr/lib/avr/include/util/delay.h **** 
 131:/usr/lib/avr/include/util/delay.h ****    When the user request delay which exceed the maximum possible one,
 132:/usr/lib/avr/include/util/delay.h ****    _delay_ms() provides a decreased resolution functionality. In this
 133:/usr/lib/avr/include/util/delay.h ****    mode _delay_ms() will work with a resolution of 1/10 ms, providing
 134:/usr/lib/avr/include/util/delay.h ****    delays up to 6.5535 seconds (independent from CPU frequency).  The
 135:/usr/lib/avr/include/util/delay.h ****    user will not be informed about decreased resolution.
 136:/usr/lib/avr/include/util/delay.h **** 
 137:/usr/lib/avr/include/util/delay.h ****    If the avr-gcc toolchain has __builtin_avr_delay_cycles()
 138:/usr/lib/avr/include/util/delay.h ****    support, maximal possible delay is 4294967.295 ms/ F_CPU in MHz. For
 139:/usr/lib/avr/include/util/delay.h ****    values greater than the maximal possible delay, overflows results in
 140:/usr/lib/avr/include/util/delay.h ****    no delay i.e., 0ms.
 141:/usr/lib/avr/include/util/delay.h **** 
 142:/usr/lib/avr/include/util/delay.h ****    Conversion of \c __ms into clock cycles may not always result in
 143:/usr/lib/avr/include/util/delay.h ****    integer.  By default, the clock cycles rounded up to next
 144:/usr/lib/avr/include/util/delay.h ****    integer. This ensures that the user gets at least \c __ms
 145:/usr/lib/avr/include/util/delay.h ****    microseconds of delay.
 146:/usr/lib/avr/include/util/delay.h **** 
 147:/usr/lib/avr/include/util/delay.h ****    Alternatively, by defining the macro \c __DELAY_ROUND_DOWN__, or
 148:/usr/lib/avr/include/util/delay.h ****    \c __DELAY_ROUND_CLOSEST__, before including this header file, the
 149:/usr/lib/avr/include/util/delay.h ****    algorithm can be made to round down, or round to closest integer,
 150:/usr/lib/avr/include/util/delay.h ****    respectively.
 151:/usr/lib/avr/include/util/delay.h **** 
 152:/usr/lib/avr/include/util/delay.h ****    \note
 153:/usr/lib/avr/include/util/delay.h **** 
 154:/usr/lib/avr/include/util/delay.h ****    The implementation of _delay_ms() based on
 155:/usr/lib/avr/include/util/delay.h ****    __builtin_avr_delay_cycles() is not backward compatible with older
 156:/usr/lib/avr/include/util/delay.h ****    implementations.  In order to get functionality backward compatible
 157:/usr/lib/avr/include/util/delay.h ****    with previous versions, the macro \c "__DELAY_BACKWARD_COMPATIBLE__"
 158:/usr/lib/avr/include/util/delay.h ****    must be defined before including this header file. Also, the
 159:/usr/lib/avr/include/util/delay.h ****    backward compatible algorithm will be chosen if the code is
 160:/usr/lib/avr/include/util/delay.h ****    compiled in a <em>freestanding environment</em> (GCC option
 161:/usr/lib/avr/include/util/delay.h ****    \c -ffreestanding), as the math functions required for rounding are
 162:/usr/lib/avr/include/util/delay.h ****    not available to the compiler then.
 163:/usr/lib/avr/include/util/delay.h **** 
 164:/usr/lib/avr/include/util/delay.h ****  */
 165:/usr/lib/avr/include/util/delay.h **** void
 166:/usr/lib/avr/include/util/delay.h **** _delay_ms(double __ms)
 167:/usr/lib/avr/include/util/delay.h **** {
 168:/usr/lib/avr/include/util/delay.h **** 	double __tmp ;
 169:/usr/lib/avr/include/util/delay.h **** #if __HAS_DELAY_CYCLES && defined(__OPTIMIZE__) && \
 170:/usr/lib/avr/include/util/delay.h ****   !defined(__DELAY_BACKWARD_COMPATIBLE__) &&	   \
 171:/usr/lib/avr/include/util/delay.h ****   __STDC_HOSTED__
 172:/usr/lib/avr/include/util/delay.h **** 	uint32_t __ticks_dc;
 173:/usr/lib/avr/include/util/delay.h **** 	extern void __builtin_avr_delay_cycles(unsigned long);
 174:/usr/lib/avr/include/util/delay.h **** 	__tmp = ((F_CPU) / 1e3) * __ms;
 175:/usr/lib/avr/include/util/delay.h **** 
 176:/usr/lib/avr/include/util/delay.h **** 	#if defined(__DELAY_ROUND_DOWN__)
 177:/usr/lib/avr/include/util/delay.h **** 		__ticks_dc = (uint32_t)fabs(__tmp);
 178:/usr/lib/avr/include/util/delay.h **** 
 179:/usr/lib/avr/include/util/delay.h **** 	#elif defined(__DELAY_ROUND_CLOSEST__)
 180:/usr/lib/avr/include/util/delay.h **** 		__ticks_dc = (uint32_t)(fabs(__tmp)+0.5);
 181:/usr/lib/avr/include/util/delay.h **** 
 182:/usr/lib/avr/include/util/delay.h **** 	#else
 183:/usr/lib/avr/include/util/delay.h **** 		//round up by default
 184:/usr/lib/avr/include/util/delay.h **** 		__ticks_dc = (uint32_t)(ceil(fabs(__tmp)));
 185:/usr/lib/avr/include/util/delay.h **** 	#endif
 186:/usr/lib/avr/include/util/delay.h **** 
 187:/usr/lib/avr/include/util/delay.h **** 	__builtin_avr_delay_cycles(__ticks_dc);
 1144               		.loc 10 187 0
 1145 0032 2FEF      		ldi r18,lo8(319999)
 1146 0034 81EE      		ldi r24,hi8(319999)
 1147 0036 94E0      		ldi r25,hlo8(319999)
 1148 0038 2150      	1:	subi r18,1
 1149 003a 8040      		sbci r24,0
 1150 003c 9040      		sbci r25,0
 1151 003e 01F4      		brne 1b
 1152 0040 00C0      		rjmp .
 1153 0042 0000      		nop
 1154               	.LVL93:
 1155               	.LBE108:
 1156               	.LBE107:
  62:avr_subscriber.cpp ****   // SetAngle(1);
  63:avr_subscriber.cpp ****   // SetSpeed(0);
  64:avr_subscriber.cpp ****   _delay_ms(100);
  65:avr_subscriber.cpp ****   sei();
 1157               		.loc 8 65 0
 1158               	/* #APP */
 1159               	 ;  65 "avr_subscriber.cpp" 1
 1160 0044 7894      		sei
 1161               	 ;  0 "" 2
 1162               	/* #NOAPP */
 1163 0046 0895      		ret
 1164               		.cfi_endproc
 1165               	.LFE152:
 1167               		.section	.text._ZN3ros3Msg8varToArrIPhmEEvT_T0_,"axG",@progbits,_ZN3ros3Msg8varToArrIPhmEEvT_T0_,c
 1168               		.weak	_ZN3ros3Msg8varToArrIPhmEEvT_T0_
 1170               	_ZN3ros3Msg8varToArrIPhmEEvT_T0_:
 1171               	.LFB153:
 1172               		.file 11 "./ros_lib/ros/msg.h"
   1:./ros_lib/ros/msg.h **** /*
   2:./ros_lib/ros/msg.h ****  * Software License Agreement (BSD License)
   3:./ros_lib/ros/msg.h ****  *
   4:./ros_lib/ros/msg.h ****  * Copyright (c) 2011, Willow Garage, Inc.
   5:./ros_lib/ros/msg.h ****  * All rights reserved.
   6:./ros_lib/ros/msg.h ****  *
   7:./ros_lib/ros/msg.h ****  * Redistribution and use in source and binary forms, with or without
   8:./ros_lib/ros/msg.h ****  * modification, are permitted provided that the following conditions
   9:./ros_lib/ros/msg.h ****  * are met:
  10:./ros_lib/ros/msg.h ****  *
  11:./ros_lib/ros/msg.h ****  *  * Redistributions of source code must retain the above copyright
  12:./ros_lib/ros/msg.h ****  *    notice, this list of conditions and the following disclaimer.
  13:./ros_lib/ros/msg.h ****  *  * Redistributions in binary form must reproduce the above
  14:./ros_lib/ros/msg.h ****  *    copyright notice, this list of conditions and the following
  15:./ros_lib/ros/msg.h ****  *    disclaimer in the documentation and/or other materials provided
  16:./ros_lib/ros/msg.h ****  *    with the distribution.
  17:./ros_lib/ros/msg.h ****  *  * Neither the name of Willow Garage, Inc. nor the names of its
  18:./ros_lib/ros/msg.h ****  *    contributors may be used to endorse or promote prducts derived
  19:./ros_lib/ros/msg.h ****  *    from this software without specific prior written permission.
  20:./ros_lib/ros/msg.h ****  *
  21:./ros_lib/ros/msg.h ****  * THIS SOFTWARE IS PROVIDED BY THE COPYRIGHT HOLDERS AND CONTRIBUTORS
  22:./ros_lib/ros/msg.h ****  * "AS IS" AND ANY EXPRESS OR IMPLIED WARRANTIES, INCLUDING, BUT NOT
  23:./ros_lib/ros/msg.h ****  * LIMITED TO, THE IMPLIED WARRANTIES OF MERCHANTABILITY AND FITNESS
  24:./ros_lib/ros/msg.h ****  * FOR A PARTICULAR PURPOSE ARE DISCLAIMED. IN NO EVENT SHALL THE
  25:./ros_lib/ros/msg.h ****  * COPYRIGHT OWNER OR CONTRIBUTORS BE LIABLE FOR ANY DIRECT, INDIRECT,
  26:./ros_lib/ros/msg.h ****  * INCIDENTAL, SPECIAL, EXEMPLARY, OR CONSEQUENTIAL DAMAGES (INCLUDING,
  27:./ros_lib/ros/msg.h ****  * BUT NOT LIMITED TO, PROCUREMENT OF SUBSTITUTE GOODS OR SERVICES;
  28:./ros_lib/ros/msg.h ****  * LOSS OF USE, DATA, OR PROFITS; OR BUSINESS INTERRUPTION) HOWEVER
  29:./ros_lib/ros/msg.h ****  * CAUSED AND ON ANY THEORY OF LIABILITY, WHETHER IN CONTRACT, STRICT
  30:./ros_lib/ros/msg.h ****  * LIABILITY, OR TORT (INCLUDING NEGLIGENCE OR OTHERWISE) ARISING IN
  31:./ros_lib/ros/msg.h ****  * ANY WAY OUT OF THE USE OF THIS SOFTWARE, EVEN IF ADVISED OF THE
  32:./ros_lib/ros/msg.h ****  * POSSIBILITY OF SUCH DAMAGE.
  33:./ros_lib/ros/msg.h ****  */
  34:./ros_lib/ros/msg.h **** 
  35:./ros_lib/ros/msg.h **** #ifndef _ROS_MSG_H_
  36:./ros_lib/ros/msg.h **** #define _ROS_MSG_H_
  37:./ros_lib/ros/msg.h **** 
  38:./ros_lib/ros/msg.h **** #include <stdint.h>
  39:./ros_lib/ros/msg.h **** #include <stddef.h>
  40:./ros_lib/ros/msg.h **** #include <string.h>
  41:./ros_lib/ros/msg.h **** 
  42:./ros_lib/ros/msg.h **** namespace ros
  43:./ros_lib/ros/msg.h **** {
  44:./ros_lib/ros/msg.h **** 
  45:./ros_lib/ros/msg.h **** /* Base Message Type */
  46:./ros_lib/ros/msg.h **** class Msg
  47:./ros_lib/ros/msg.h **** {
  48:./ros_lib/ros/msg.h **** public:
  49:./ros_lib/ros/msg.h ****   virtual int serialize(unsigned char *outbuffer) const = 0;
  50:./ros_lib/ros/msg.h ****   virtual int deserialize(unsigned char *data) = 0;
  51:./ros_lib/ros/msg.h ****   virtual const char * getType() = 0;
  52:./ros_lib/ros/msg.h ****   virtual const char * getMD5() = 0;
  53:./ros_lib/ros/msg.h **** 
  54:./ros_lib/ros/msg.h ****   /**
  55:./ros_lib/ros/msg.h ****    * @brief This tricky function handles promoting a 32bit float to a 64bit
  56:./ros_lib/ros/msg.h ****    *        double, so that AVR can publish messages containing float64
  57:./ros_lib/ros/msg.h ****    *        fields, despite AVR having no native support for double.
  58:./ros_lib/ros/msg.h ****    *
  59:./ros_lib/ros/msg.h ****    * @param[out] outbuffer pointer for buffer to serialize to.
  60:./ros_lib/ros/msg.h ****    * @param[in] f value to serialize.
  61:./ros_lib/ros/msg.h ****    *
  62:./ros_lib/ros/msg.h ****    * @return number of bytes to advance the buffer pointer.
  63:./ros_lib/ros/msg.h ****    *
  64:./ros_lib/ros/msg.h ****    */
  65:./ros_lib/ros/msg.h ****   static int serializeAvrFloat64(unsigned char* outbuffer, const float f)
  66:./ros_lib/ros/msg.h ****   {
  67:./ros_lib/ros/msg.h ****     int32_t val;
  68:./ros_lib/ros/msg.h ****     memcpy(&val, &f, sizeof(val));
  69:./ros_lib/ros/msg.h **** 
  70:./ros_lib/ros/msg.h ****     int16_t exp = ((val >> 23) & 255);
  71:./ros_lib/ros/msg.h ****     uint32_t mantissa = val & 0x7FFFFF;
  72:./ros_lib/ros/msg.h **** 
  73:./ros_lib/ros/msg.h ****     if (exp == 255)
  74:./ros_lib/ros/msg.h ****     {
  75:./ros_lib/ros/msg.h ****       exp = 2047; // Special value for NaN, infinity etc.
  76:./ros_lib/ros/msg.h ****     }
  77:./ros_lib/ros/msg.h ****     else if (exp != 0)
  78:./ros_lib/ros/msg.h ****     {
  79:./ros_lib/ros/msg.h ****       exp += 1023 - 127; // Normal case
  80:./ros_lib/ros/msg.h ****     }
  81:./ros_lib/ros/msg.h ****     else if (!mantissa)
  82:./ros_lib/ros/msg.h ****     {
  83:./ros_lib/ros/msg.h ****       exp = 0; // Zero
  84:./ros_lib/ros/msg.h ****     }
  85:./ros_lib/ros/msg.h ****     else
  86:./ros_lib/ros/msg.h ****     {
  87:./ros_lib/ros/msg.h ****       // Denormalized value in float, will fit as normalized value in double
  88:./ros_lib/ros/msg.h ****       exp += 1023 - 127;
  89:./ros_lib/ros/msg.h ****       mantissa <<= 1;
  90:./ros_lib/ros/msg.h ****       while (!(mantissa & 0x800000))
  91:./ros_lib/ros/msg.h ****       {
  92:./ros_lib/ros/msg.h ****           mantissa <<= 1;
  93:./ros_lib/ros/msg.h ****           exp--;
  94:./ros_lib/ros/msg.h ****       }
  95:./ros_lib/ros/msg.h ****       mantissa &= 0x7FFFFF;
  96:./ros_lib/ros/msg.h ****     }
  97:./ros_lib/ros/msg.h **** 
  98:./ros_lib/ros/msg.h ****     *(outbuffer++) = 0;
  99:./ros_lib/ros/msg.h ****     *(outbuffer++) = 0;
 100:./ros_lib/ros/msg.h ****     *(outbuffer++) = 0;
 101:./ros_lib/ros/msg.h ****     *(outbuffer++) = (mantissa << 5) & 0xff;
 102:./ros_lib/ros/msg.h ****     *(outbuffer++) = (mantissa >> 3) & 0xff;
 103:./ros_lib/ros/msg.h ****     *(outbuffer++) = (mantissa >> 11) & 0xff;
 104:./ros_lib/ros/msg.h ****     *(outbuffer++) = ((exp << 4) & 0xF0) | ((mantissa >> 19) & 0x0F);
 105:./ros_lib/ros/msg.h ****     *(outbuffer++) = (exp >> 4) & 0x7F;
 106:./ros_lib/ros/msg.h **** 
 107:./ros_lib/ros/msg.h ****     // Mark negative bit as necessary.
 108:./ros_lib/ros/msg.h ****     if (f < 0)
 109:./ros_lib/ros/msg.h ****     {
 110:./ros_lib/ros/msg.h ****       *(outbuffer - 1) |= 0x80;
 111:./ros_lib/ros/msg.h ****     }
 112:./ros_lib/ros/msg.h **** 
 113:./ros_lib/ros/msg.h ****     return 8;
 114:./ros_lib/ros/msg.h ****   }
 115:./ros_lib/ros/msg.h **** 
 116:./ros_lib/ros/msg.h ****   /**
 117:./ros_lib/ros/msg.h ****    * @brief This tricky function handles demoting a 64bit double to a
 118:./ros_lib/ros/msg.h ****    *        32bit float, so that AVR can understand messages containing
 119:./ros_lib/ros/msg.h ****    *        float64 fields, despite AVR having no native support for double.
 120:./ros_lib/ros/msg.h ****    *
 121:./ros_lib/ros/msg.h ****    * @param[in] inbuffer pointer for buffer to deserialize from.
 122:./ros_lib/ros/msg.h ****    * @param[out] f pointer to place the deserialized value in.
 123:./ros_lib/ros/msg.h ****    *
 124:./ros_lib/ros/msg.h ****    * @return number of bytes to advance the buffer pointer.
 125:./ros_lib/ros/msg.h ****    */
 126:./ros_lib/ros/msg.h ****   static int deserializeAvrFloat64(const unsigned char* inbuffer, float* f)
 127:./ros_lib/ros/msg.h ****   {
 128:./ros_lib/ros/msg.h ****     int16_t exp;
 129:./ros_lib/ros/msg.h ****     uint32_t mantissa;
 130:./ros_lib/ros/msg.h **** 
 131:./ros_lib/ros/msg.h ****     // Skip lowest 24 bits
 132:./ros_lib/ros/msg.h ****     inbuffer += 3;
 133:./ros_lib/ros/msg.h **** 
 134:./ros_lib/ros/msg.h ****     // Copy truncated mantissa.
 135:./ros_lib/ros/msg.h ****     mantissa = ((uint32_t)(*(inbuffer++)) >> 4 & 0x0F);
 136:./ros_lib/ros/msg.h ****     mantissa |= ((uint32_t)(*(inbuffer++)) & 0xff) << 4;
 137:./ros_lib/ros/msg.h ****     mantissa |= ((uint32_t)(*(inbuffer++)) & 0xff) << 12;
 138:./ros_lib/ros/msg.h ****     mantissa |= ((uint32_t)(*inbuffer) & 0x0f) << 20;
 139:./ros_lib/ros/msg.h **** 
 140:./ros_lib/ros/msg.h ****     // Copy exponent.
 141:./ros_lib/ros/msg.h ****     exp = ((uint32_t)(*(inbuffer++)) & 0xf0) >> 4;
 142:./ros_lib/ros/msg.h ****     exp |= ((uint32_t)(*inbuffer) & 0x7f) << 4;
 143:./ros_lib/ros/msg.h **** 
 144:./ros_lib/ros/msg.h ****     if (exp == 2047)
 145:./ros_lib/ros/msg.h ****     {
 146:./ros_lib/ros/msg.h ****       exp = 255; // NaN, infinity etc.
 147:./ros_lib/ros/msg.h ****     }
 148:./ros_lib/ros/msg.h ****     else if (exp - 1023 > 127)
 149:./ros_lib/ros/msg.h ****     {
 150:./ros_lib/ros/msg.h ****       exp = 255;
 151:./ros_lib/ros/msg.h ****       mantissa = 0; // Too large for float, convert to infinity
 152:./ros_lib/ros/msg.h ****     }
 153:./ros_lib/ros/msg.h ****     else if (exp - 1023 >= -126)
 154:./ros_lib/ros/msg.h ****     {
 155:./ros_lib/ros/msg.h ****       exp -= 1023 - 127; // Normal case
 156:./ros_lib/ros/msg.h ****     }
 157:./ros_lib/ros/msg.h ****     else if (exp - 1023 < -150)
 158:./ros_lib/ros/msg.h ****     {
 159:./ros_lib/ros/msg.h ****       exp = 0; // Too small or zero
 160:./ros_lib/ros/msg.h ****     }
 161:./ros_lib/ros/msg.h ****     else
 162:./ros_lib/ros/msg.h ****     {
 163:./ros_lib/ros/msg.h ****       // Have to convert to denormalized representation for float
 164:./ros_lib/ros/msg.h ****       mantissa |= 0x1000000;
 165:./ros_lib/ros/msg.h ****       mantissa >>= ((-126 + 1023) - exp);
 166:./ros_lib/ros/msg.h ****       exp = 0;
 167:./ros_lib/ros/msg.h ****     }
 168:./ros_lib/ros/msg.h **** 
 169:./ros_lib/ros/msg.h ****     // Round off mantissa
 170:./ros_lib/ros/msg.h ****     if (mantissa != 0xFFFFFF)
 171:./ros_lib/ros/msg.h ****       mantissa += 1;
 172:./ros_lib/ros/msg.h **** 
 173:./ros_lib/ros/msg.h ****     mantissa >>= 1;
 174:./ros_lib/ros/msg.h **** 
 175:./ros_lib/ros/msg.h ****     // Put mantissa and exponent into place
 176:./ros_lib/ros/msg.h ****     uint32_t val = mantissa;
 177:./ros_lib/ros/msg.h ****     val |= static_cast<uint32_t>(exp) << 23;
 178:./ros_lib/ros/msg.h **** 
 179:./ros_lib/ros/msg.h ****     // Copy negative sign.
 180:./ros_lib/ros/msg.h ****     val |= (static_cast<uint32_t>(*(inbuffer++)) & 0x80) << 24;
 181:./ros_lib/ros/msg.h **** 
 182:./ros_lib/ros/msg.h ****     memcpy(f, &val, sizeof(val));
 183:./ros_lib/ros/msg.h ****     return 8;
 184:./ros_lib/ros/msg.h ****   }
 185:./ros_lib/ros/msg.h **** 
 186:./ros_lib/ros/msg.h ****   // Copy data from variable into a byte array
 187:./ros_lib/ros/msg.h ****   template<typename A, typename V>
 188:./ros_lib/ros/msg.h ****   static void varToArr(A arr, const V var)
 1173               		.loc 11 188 0
 1174               		.cfi_startproc
 1175               	.LVL94:
 1176 0000 CF92      		push r12
 1177               	.LCFI16:
 1178               		.cfi_def_cfa_offset 4
 1179               		.cfi_offset 12, -3
 1180 0002 DF92      		push r13
 1181               	.LCFI17:
 1182               		.cfi_def_cfa_offset 5
 1183               		.cfi_offset 13, -4
 1184 0004 EF92      		push r14
 1185               	.LCFI18:
 1186               		.cfi_def_cfa_offset 6
 1187               		.cfi_offset 14, -5
 1188 0006 FF92      		push r15
 1189               	.LCFI19:
 1190               		.cfi_def_cfa_offset 7
 1191               		.cfi_offset 15, -6
 1192               	/* prologue: function */
 1193               	/* frame size = 0 */
 1194               	/* stack size = 4 */
 1195               	.L__stack_usage = 4
 1196               	.LVL95:
 1197               		.loc 11 188 0
 1198 0008 20E0      		ldi r18,0
 1199 000a 30E0      		ldi r19,0
 1200               	.LVL96:
 1201               	.L34:
 1202               	.LBB109:
 189:./ros_lib/ros/msg.h ****   {
 190:./ros_lib/ros/msg.h ****     for (size_t i = 0; i < sizeof(V); i++)
 191:./ros_lib/ros/msg.h ****       arr[i] = (var >> (8 * i));
 1203               		.loc 11 191 0 discriminator 2
 1204 000c 6A01      		movw r12,r20
 1205 000e 7B01      		movw r14,r22
 1206 0010 022E      		mov r0,r18
 1207 0012 00C0      		rjmp 2f
 1208               		1:
 1209 0014 F694      		lsr r15
 1210 0016 E794      		ror r14
 1211 0018 D794      		ror r13
 1212 001a C794      		ror r12
 1213               		2:
 1214 001c 0A94      		dec r0
 1215 001e 02F4      		brpl 1b
 1216 0020 FC01      		movw r30,r24
 1217 0022 C192      		st Z+,r12
 1218 0024 CF01      		movw r24,r30
 1219               	.LVL97:
 1220 0026 285F      		subi r18,-8
 1221 0028 3F4F      		sbci r19,-1
 190:./ros_lib/ros/msg.h ****       arr[i] = (var >> (8 * i));
 1222               		.loc 11 190 0 discriminator 2
 1223 002a 2032      		cpi r18,32
 1224 002c 3105      		cpc r19,__zero_reg__
 1225 002e 01F4      		brne .L34
 1226               	/* epilogue start */
 1227               	.LBE109:
 192:./ros_lib/ros/msg.h ****   }
 1228               		.loc 11 192 0
 1229 0030 FF90      		pop r15
 1230 0032 EF90      		pop r14
 1231 0034 DF90      		pop r13
 1232 0036 CF90      		pop r12
 1233 0038 0895      		ret
 1234               		.cfi_endproc
 1235               	.LFE153:
 1237               		.section	.text._ZNK14rosserial_msgs20RequestParamResponse9serializeEPh,"axG",@progbits,_ZNK14rosse
 1238               		.weak	_ZNK14rosserial_msgs20RequestParamResponse9serializeEPh
 1240               	_ZNK14rosserial_msgs20RequestParamResponse9serializeEPh:
 1241               	.LFB61:
  78:./ros_lib/rosserial_msgs/RequestParam.h ****     {
 1242               		.loc 4 78 0
 1243               		.cfi_startproc
 1244               	.LVL98:
 1245 0000 4F92      		push r4
 1246               	.LCFI20:
 1247               		.cfi_def_cfa_offset 4
 1248               		.cfi_offset 4, -3
 1249 0002 5F92      		push r5
 1250               	.LCFI21:
 1251               		.cfi_def_cfa_offset 5
 1252               		.cfi_offset 5, -4
 1253 0004 6F92      		push r6
 1254               	.LCFI22:
 1255               		.cfi_def_cfa_offset 6
 1256               		.cfi_offset 6, -5
 1257 0006 7F92      		push r7
 1258               	.LCFI23:
 1259               		.cfi_def_cfa_offset 7
 1260               		.cfi_offset 7, -6
 1261 0008 AF92      		push r10
 1262               	.LCFI24:
 1263               		.cfi_def_cfa_offset 8
 1264               		.cfi_offset 10, -7
 1265 000a BF92      		push r11
 1266               	.LCFI25:
 1267               		.cfi_def_cfa_offset 9
 1268               		.cfi_offset 11, -8
 1269 000c CF92      		push r12
 1270               	.LCFI26:
 1271               		.cfi_def_cfa_offset 10
 1272               		.cfi_offset 12, -9
 1273 000e DF92      		push r13
 1274               	.LCFI27:
 1275               		.cfi_def_cfa_offset 11
 1276               		.cfi_offset 13, -10
 1277 0010 EF92      		push r14
 1278               	.LCFI28:
 1279               		.cfi_def_cfa_offset 12
 1280               		.cfi_offset 14, -11
 1281 0012 FF92      		push r15
 1282               	.LCFI29:
 1283               		.cfi_def_cfa_offset 13
 1284               		.cfi_offset 15, -12
 1285 0014 0F93      		push r16
 1286               	.LCFI30:
 1287               		.cfi_def_cfa_offset 14
 1288               		.cfi_offset 16, -13
 1289 0016 1F93      		push r17
 1290               	.LCFI31:
 1291               		.cfi_def_cfa_offset 15
 1292               		.cfi_offset 17, -14
 1293 0018 CF93      		push r28
 1294               	.LCFI32:
 1295               		.cfi_def_cfa_offset 16
 1296               		.cfi_offset 28, -15
 1297 001a DF93      		push r29
 1298               	.LCFI33:
 1299               		.cfi_def_cfa_offset 17
 1300               		.cfi_offset 29, -16
 1301               	/* prologue: function */
 1302               	/* frame size = 0 */
 1303               	/* stack size = 14 */
 1304               	.L__stack_usage = 14
 1305 001c EC01      		movw r28,r24
 1306 001e 8B01      		movw r16,r22
 1307               	.LVL99:
  81:./ros_lib/rosserial_msgs/RequestParam.h ****       *(outbuffer + offset + 1) = (this->ints_length >> (8 * 1)) & 0xFF;
 1308               		.loc 4 81 0
 1309 0020 8A81      		ldd r24,Y+2
 1310               	.LVL100:
 1311 0022 FB01      		movw r30,r22
 1312 0024 8083      		st Z,r24
  82:./ros_lib/rosserial_msgs/RequestParam.h ****       *(outbuffer + offset + 2) = (this->ints_length >> (8 * 2)) & 0xFF;
 1313               		.loc 4 82 0
 1314 0026 8B81      		ldd r24,Y+3
 1315 0028 8183      		std Z+1,r24
  83:./ros_lib/rosserial_msgs/RequestParam.h ****       *(outbuffer + offset + 3) = (this->ints_length >> (8 * 3)) & 0xFF;
 1316               		.loc 4 83 0
 1317 002a 8C81      		ldd r24,Y+4
 1318 002c 8283      		std Z+2,r24
  84:./ros_lib/rosserial_msgs/RequestParam.h ****       offset += sizeof(this->ints_length);
 1319               		.loc 4 84 0
 1320 002e 8D81      		ldd r24,Y+5
 1321 0030 8383      		std Z+3,r24
 1322               	.LVL101:
 1323 0032 DB01      		movw r26,r22
 1324               	.LBB110:
  86:./ros_lib/rosserial_msgs/RequestParam.h ****       union {
 1325               		.loc 4 86 0
 1326 0034 40E0      		ldi r20,0
 1327 0036 50E0      		ldi r21,0
 1328 0038 BA01      		movw r22,r20
 1329               	.LBE110:
  85:./ros_lib/rosserial_msgs/RequestParam.h ****       for( uint32_t i = 0; i < ints_length; i++){
 1330               		.loc 4 85 0
 1331 003a E4E0      		ldi r30,lo8(4)
 1332 003c F0E0      		ldi r31,0
 1333               	.LVL102:
 1334               	.L38:
 1335 003e 1496      		adiw r26,4
 1336               	.LBB112:
  86:./ros_lib/rosserial_msgs/RequestParam.h ****       union {
 1337               		.loc 4 86 0 discriminator 3
 1338 0040 CA80      		ldd r12,Y+2
 1339 0042 DB80      		ldd r13,Y+3
 1340 0044 EC80      		ldd r14,Y+4
 1341 0046 FD80      		ldd r15,Y+5
 1342 0048 CF01      		movw r24,r30
 1343 004a 0496      		adiw r24,4
 1344 004c 4C15      		cp r20,r12
 1345 004e 5D05      		cpc r21,r13
 1346 0050 6E05      		cpc r22,r14
 1347 0052 7F05      		cpc r23,r15
 1348 0054 00F4      		brsh .L37
 1349               	.LBB111:
  91:./ros_lib/rosserial_msgs/RequestParam.h ****       *(outbuffer + offset + 0) = (u_intsi.base >> (8 * 0)) & 0xFF;
 1350               		.loc 4 91 0 discriminator 2
 1351 0056 2A85      		ldd r18,Y+10
 1352 0058 3B85      		ldd r19,Y+11
 1353 005a E20F      		add r30,r18
 1354 005c F31F      		adc r31,r19
 1355 005e 3497      		sbiw r30,4
 1356 0060 D080      		ld r13,Z
 1357               	.LVL103:
  92:./ros_lib/rosserial_msgs/RequestParam.h ****       *(outbuffer + offset + 1) = (u_intsi.base >> (8 * 1)) & 0xFF;
 1358               		.loc 4 92 0 discriminator 2
 1359 0062 F180      		ldd r15,Z+1
 1360 0064 3281      		ldd r19,Z+2
 1361 0066 2381      		ldd r18,Z+3
 1362 0068 DC92      		st X,r13
 1363               	.LVL104:
  93:./ros_lib/rosserial_msgs/RequestParam.h ****       *(outbuffer + offset + 2) = (u_intsi.base >> (8 * 2)) & 0xFF;
 1364               		.loc 4 93 0 discriminator 2
 1365 006a 1196      		adiw r26,1
 1366 006c FC92      		st X,r15
 1367 006e 1197      		sbiw r26,1
  94:./ros_lib/rosserial_msgs/RequestParam.h ****       *(outbuffer + offset + 3) = (u_intsi.base >> (8 * 3)) & 0xFF;
 1368               		.loc 4 94 0 discriminator 2
 1369 0070 1296      		adiw r26,2
 1370 0072 3C93      		st X,r19
 1371 0074 1297      		sbiw r26,2
  95:./ros_lib/rosserial_msgs/RequestParam.h ****       offset += sizeof(this->ints[i]);
 1372               		.loc 4 95 0 discriminator 2
 1373 0076 1396      		adiw r26,3
 1374 0078 2C93      		st X,r18
 1375 007a 1397      		sbiw r26,3
 1376               	.LVL105:
 1377 007c FC01      		movw r30,r24
 1378               	.LVL106:
 1379               	.LBE111:
  86:./ros_lib/rosserial_msgs/RequestParam.h ****       union {
 1380               		.loc 4 86 0 discriminator 2
 1381 007e 4F5F      		subi r20,-1
 1382 0080 5F4F      		sbci r21,-1
 1383 0082 6F4F      		sbci r22,-1
 1384 0084 7F4F      		sbci r23,-1
 1385               	.LVL107:
 1386 0086 00C0      		rjmp .L38
 1387               	.LVL108:
 1388               	.L37:
 1389               	.LBE112:
  98:./ros_lib/rosserial_msgs/RequestParam.h ****       *(outbuffer + offset + 1) = (this->floats_length >> (8 * 1)) & 0xFF;
 1390               		.loc 4 98 0
 1391 0088 5F01      		movw r10,r30
 1392 008a A00E      		add r10,r16
 1393 008c B11E      		adc r11,r17
 1394 008e 2C85      		ldd r18,Y+12
 1395 0090 F501      		movw r30,r10
 1396 0092 2083      		st Z,r18
  99:./ros_lib/rosserial_msgs/RequestParam.h ****       *(outbuffer + offset + 2) = (this->floats_length >> (8 * 2)) & 0xFF;
 1397               		.loc 4 99 0
 1398 0094 2D85      		ldd r18,Y+13
 1399 0096 2183      		std Z+1,r18
 100:./ros_lib/rosserial_msgs/RequestParam.h ****       *(outbuffer + offset + 3) = (this->floats_length >> (8 * 3)) & 0xFF;
 1400               		.loc 4 100 0
 1401 0098 2E85      		ldd r18,Y+14
 1402 009a 2283      		std Z+2,r18
 101:./ros_lib/rosserial_msgs/RequestParam.h ****       offset += sizeof(this->floats_length);
 1403               		.loc 4 101 0
 1404 009c 2F85      		ldd r18,Y+15
 1405 009e 2383      		std Z+3,r18
 1406               	.LVL109:
 1407 00a0 D501      		movw r26,r10
 1408               	.LBB113:
 103:./ros_lib/rosserial_msgs/RequestParam.h ****       union {
 1409               		.loc 4 103 0
 1410 00a2 40E0      		ldi r20,0
 1411 00a4 50E0      		ldi r21,0
 1412 00a6 BA01      		movw r22,r20
 1413               	.LVL110:
 1414               	.L40:
 103:./ros_lib/rosserial_msgs/RequestParam.h ****       union {
 1415               		.loc 4 103 0 is_stmt 0 discriminator 3
 1416 00a8 CC84      		ldd r12,Y+12
 1417 00aa DD84      		ldd r13,Y+13
 1418 00ac EE84      		ldd r14,Y+14
 1419 00ae FF84      		ldd r15,Y+15
 1420 00b0 9C01      		movw r18,r24
 1421 00b2 2C5F      		subi r18,-4
 1422 00b4 3F4F      		sbci r19,-1
 1423 00b6 4C15      		cp r20,r12
 1424 00b8 5D05      		cpc r21,r13
 1425 00ba 6E05      		cpc r22,r14
 1426 00bc 7F05      		cpc r23,r15
 1427 00be 00F4      		brsh .L39
 1428               	.LVL111:
 1429               	.LBB114:
 108:./ros_lib/rosserial_msgs/RequestParam.h ****       *(outbuffer + offset + 0) = (u_floatsi.base >> (8 * 0)) & 0xFF;
 1430               		.loc 4 108 0 is_stmt 1 discriminator 2
 1431 00c0 CD01      		movw r24,r26
 1432               	.LVL112:
 1433 00c2 8A19      		sub r24,r10
 1434 00c4 9B09      		sbc r25,r11
 1435 00c6 EC88      		ldd r14,Y+20
 1436 00c8 FD88      		ldd r15,Y+21
 1437 00ca 8E0D      		add r24,r14
 1438 00cc 9F1D      		adc r25,r15
 109:./ros_lib/rosserial_msgs/RequestParam.h ****       *(outbuffer + offset + 1) = (u_floatsi.base >> (8 * 1)) & 0xFF;
 1439               		.loc 4 109 0 discriminator 2
 1440 00ce FC01      		movw r30,r24
 1441 00d0 D080      		ld r13,Z
 1442 00d2 E180      		ldd r14,Z+1
 1443 00d4 F280      		ldd r15,Z+2
 1444 00d6 8381      		ldd r24,Z+3
 1445 00d8 1496      		adiw r26,4
 1446 00da DC92      		st X,r13
 1447 00dc 1497      		sbiw r26,4
 110:./ros_lib/rosserial_msgs/RequestParam.h ****       *(outbuffer + offset + 2) = (u_floatsi.base >> (8 * 2)) & 0xFF;
 1448               		.loc 4 110 0 discriminator 2
 1449 00de 1596      		adiw r26,5
 1450 00e0 EC92      		st X,r14
 1451 00e2 1597      		sbiw r26,5
 111:./ros_lib/rosserial_msgs/RequestParam.h ****       *(outbuffer + offset + 3) = (u_floatsi.base >> (8 * 3)) & 0xFF;
 1452               		.loc 4 111 0 discriminator 2
 1453 00e4 1696      		adiw r26,6
 1454 00e6 FC92      		st X,r15
 1455 00e8 1697      		sbiw r26,6
 112:./ros_lib/rosserial_msgs/RequestParam.h ****       offset += sizeof(this->floats[i]);
 1456               		.loc 4 112 0 discriminator 2
 1457 00ea 1796      		adiw r26,7
 1458 00ec 8C93      		st X,r24
 1459 00ee 1797      		sbiw r26,7
 1460 00f0 C901      		movw r24,r18
 1461               	.LVL113:
 1462               	.LBE114:
 103:./ros_lib/rosserial_msgs/RequestParam.h ****       union {
 1463               		.loc 4 103 0 discriminator 2
 1464 00f2 4F5F      		subi r20,-1
 1465 00f4 5F4F      		sbci r21,-1
 1466 00f6 6F4F      		sbci r22,-1
 1467 00f8 7F4F      		sbci r23,-1
 1468               	.LVL114:
 1469 00fa 1496      		adiw r26,4
 1470 00fc 00C0      		rjmp .L40
 1471               	.LVL115:
 1472               	.L39:
 1473               	.LBE113:
 115:./ros_lib/rosserial_msgs/RequestParam.h ****       *(outbuffer + offset + 1) = (this->strings_length >> (8 * 1)) & 0xFF;
 1474               		.loc 4 115 0
 1475 00fe F801      		movw r30,r16
 1476 0100 E80F      		add r30,r24
 1477 0102 F91F      		adc r31,r25
 1478 0104 8E89      		ldd r24,Y+22
 1479               	.LVL116:
 1480 0106 8083      		st Z,r24
 116:./ros_lib/rosserial_msgs/RequestParam.h ****       *(outbuffer + offset + 2) = (this->strings_length >> (8 * 2)) & 0xFF;
 1481               		.loc 4 116 0
 1482 0108 8F89      		ldd r24,Y+23
 1483 010a 8183      		std Z+1,r24
 117:./ros_lib/rosserial_msgs/RequestParam.h ****       *(outbuffer + offset + 3) = (this->strings_length >> (8 * 3)) & 0xFF;
 1484               		.loc 4 117 0
 1485 010c 888D      		ldd r24,Y+24
 1486 010e 8283      		std Z+2,r24
 118:./ros_lib/rosserial_msgs/RequestParam.h ****       offset += sizeof(this->strings_length);
 1487               		.loc 4 118 0
 1488 0110 898D      		ldd r24,Y+25
 1489 0112 8383      		std Z+3,r24
 119:./ros_lib/rosserial_msgs/RequestParam.h ****       for( uint32_t i = 0; i < strings_length; i++){
 1490               		.loc 4 119 0
 1491 0114 7901      		movw r14,r18
 1492               	.LVL117:
 1493 0116 A12C      		mov r10,__zero_reg__
 1494 0118 B12C      		mov r11,__zero_reg__
 1495               	.LBB115:
 120:./ros_lib/rosserial_msgs/RequestParam.h ****       uint32_t length_stringsi = strlen(this->strings[i]);
 1496               		.loc 4 120 0
 1497 011a 412C      		mov r4,__zero_reg__
 1498 011c 512C      		mov r5,__zero_reg__
 1499 011e 3201      		movw r6,r4
 1500               	.LVL118:
 1501               	.L42:
 120:./ros_lib/rosserial_msgs/RequestParam.h ****       uint32_t length_stringsi = strlen(this->strings[i]);
 1502               		.loc 4 120 0 is_stmt 0 discriminator 3
 1503 0120 8E89      		ldd r24,Y+22
 1504 0122 9F89      		ldd r25,Y+23
 1505 0124 A88D      		ldd r26,Y+24
 1506 0126 B98D      		ldd r27,Y+25
 1507 0128 4816      		cp r4,r24
 1508 012a 5906      		cpc r5,r25
 1509 012c 6A06      		cpc r6,r26
 1510 012e 7B06      		cpc r7,r27
 1511 0130 00F4      		brsh .L41
 1512               	.LBB116:
 121:./ros_lib/rosserial_msgs/RequestParam.h ****       varToArr(outbuffer + offset, length_stringsi);
 1513               		.loc 4 121 0 is_stmt 1 discriminator 2
 1514 0132 EC8D      		ldd r30,Y+28
 1515 0134 FD8D      		ldd r31,Y+29
 1516 0136 EA0D      		add r30,r10
 1517 0138 FB1D      		adc r31,r11
 1518 013a A081      		ld r26,Z
 1519 013c B181      		ldd r27,Z+1
 1520 013e FD01      		movw r30,r26
 1521               		0:
 1522 0140 0190      		ld __tmp_reg__,Z+
 1523 0142 0020      		tst __tmp_reg__
 1524 0144 01F4      		brne 0b
 1525 0146 3197      		sbiw r30,1
 1526 0148 6F01      		movw r12,r30
 1527 014a CA1A      		sub r12,r26
 1528 014c DB0A      		sbc r13,r27
 1529               	.LVL119:
 122:./ros_lib/rosserial_msgs/RequestParam.h ****       offset += 4;
 1530               		.loc 4 122 0 discriminator 2
 1531 014e A601      		movw r20,r12
 1532 0150 60E0      		ldi r22,0
 1533 0152 70E0      		ldi r23,0
 1534 0154 C801      		movw r24,r16
 1535 0156 8E0D      		add r24,r14
 1536 0158 9F1D      		adc r25,r15
 1537 015a 0E94 0000 		call _ZN3ros3Msg8varToArrIPhmEEvT_T0_
 1538               	.LVL120:
 124:./ros_lib/rosserial_msgs/RequestParam.h ****       offset += length_stringsi;
 1539               		.loc 4 124 0 discriminator 2
 1540 015e F4E0      		ldi r31,4
 1541 0160 EF0E      		add r14,r31
 1542 0162 F11C      		adc r15,__zero_reg__
 1543               	.LVL121:
 1544 0164 EC8D      		ldd r30,Y+28
 1545 0166 FD8D      		ldd r31,Y+29
 1546 0168 EA0D      		add r30,r10
 1547 016a FB1D      		adc r31,r11
 1548 016c 6081      		ld r22,Z
 1549 016e 7181      		ldd r23,Z+1
 1550 0170 A601      		movw r20,r12
 1551 0172 C801      		movw r24,r16
 1552 0174 8E0D      		add r24,r14
 1553 0176 9F1D      		adc r25,r15
 1554 0178 0E94 0000 		call memcpy
 1555               	.LVL122:
 125:./ros_lib/rosserial_msgs/RequestParam.h ****       }
 1556               		.loc 4 125 0 discriminator 2
 1557 017c EC0C      		add r14,r12
 1558 017e FD1C      		adc r15,r13
 1559               	.LVL123:
 1560               	.LBE116:
 120:./ros_lib/rosserial_msgs/RequestParam.h ****       uint32_t length_stringsi = strlen(this->strings[i]);
 1561               		.loc 4 120 0 discriminator 2
 1562 0180 8FEF      		ldi r24,-1
 1563 0182 481A      		sub r4,r24
 1564 0184 580A      		sbc r5,r24
 1565 0186 680A      		sbc r6,r24
 1566 0188 780A      		sbc r7,r24
 1567               	.LVL124:
 1568 018a E2E0      		ldi r30,2
 1569 018c AE0E      		add r10,r30
 1570 018e B11C      		adc r11,__zero_reg__
 1571 0190 00C0      		rjmp .L42
 1572               	.LVL125:
 1573               	.L41:
 1574               	.LBE115:
 128:./ros_lib/rosserial_msgs/RequestParam.h **** 
 1575               		.loc 4 128 0
 1576 0192 C701      		movw r24,r14
 1577               	/* epilogue start */
 1578 0194 DF91      		pop r29
 1579 0196 CF91      		pop r28
 1580               	.LVL126:
 1581 0198 1F91      		pop r17
 1582 019a 0F91      		pop r16
 1583               	.LVL127:
 1584 019c FF90      		pop r15
 1585 019e EF90      		pop r14
 1586               	.LVL128:
 1587 01a0 DF90      		pop r13
 1588 01a2 CF90      		pop r12
 1589 01a4 BF90      		pop r11
 1590 01a6 AF90      		pop r10
 1591 01a8 7F90      		pop r7
 1592 01aa 6F90      		pop r6
 1593 01ac 5F90      		pop r5
 1594 01ae 4F90      		pop r4
 1595               	.LVL129:
 1596 01b0 0895      		ret
 1597               		.cfi_endproc
 1598               	.LFE61:
 1600               		.section	.text._ZNK14rosserial_msgs3Log9serializeEPh,"axG",@progbits,_ZNK14rosserial_msgs3Log9seri
 1601               		.weak	_ZNK14rosserial_msgs3Log9serializeEPh
 1603               	_ZNK14rosserial_msgs3Log9serializeEPh:
 1604               	.LFB47:
  31:./ros_lib/rosserial_msgs/Log.h ****     {
 1605               		.loc 3 31 0
 1606               		.cfi_startproc
 1607               	.LVL130:
 1608 0000 EF92      		push r14
 1609               	.LCFI34:
 1610               		.cfi_def_cfa_offset 4
 1611               		.cfi_offset 14, -3
 1612 0002 FF92      		push r15
 1613               	.LCFI35:
 1614               		.cfi_def_cfa_offset 5
 1615               		.cfi_offset 15, -4
 1616 0004 0F93      		push r16
 1617               	.LCFI36:
 1618               		.cfi_def_cfa_offset 6
 1619               		.cfi_offset 16, -5
 1620 0006 1F93      		push r17
 1621               	.LCFI37:
 1622               		.cfi_def_cfa_offset 7
 1623               		.cfi_offset 17, -6
 1624 0008 CF93      		push r28
 1625               	.LCFI38:
 1626               		.cfi_def_cfa_offset 8
 1627               		.cfi_offset 28, -7
 1628 000a DF93      		push r29
 1629               	.LCFI39:
 1630               		.cfi_def_cfa_offset 9
 1631               		.cfi_offset 29, -8
 1632               	/* prologue: function */
 1633               	/* frame size = 0 */
 1634               	/* stack size = 6 */
 1635               	.L__stack_usage = 6
 1636 000c 8C01      		movw r16,r24
 1637 000e 7B01      		movw r14,r22
 1638               	.LVL131:
  34:./ros_lib/rosserial_msgs/Log.h ****       offset += sizeof(this->level);
 1639               		.loc 3 34 0
 1640 0010 DC01      		movw r26,r24
 1641 0012 1296      		adiw r26,2
 1642 0014 2C91      		ld r18,X
 1643 0016 1297      		sbiw r26,2
 1644 0018 FB01      		movw r30,r22
 1645 001a 2193      		st Z+,r18
 1646 001c CF01      		movw r24,r30
 1647               	.LVL132:
  36:./ros_lib/rosserial_msgs/Log.h ****       varToArr(outbuffer + offset, length_msg);
 1648               		.loc 3 36 0
 1649 001e 1396      		adiw r26,3
 1650 0020 ED91      		ld r30,X+
 1651 0022 FC91      		ld r31,X
 1652 0024 1497      		sbiw r26,3+1
 1653 0026 EF01      		movw r28,r30
 1654               		0:
 1655 0028 0990      		ld __tmp_reg__,Y+
 1656 002a 0020      		tst __tmp_reg__
 1657 002c 01F4      		brne 0b
 1658 002e 2197      		sbiw r28,1
 1659 0030 CE1B      		sub r28,r30
 1660 0032 DF0B      		sbc r29,r31
 1661               	.LVL133:
  37:./ros_lib/rosserial_msgs/Log.h ****       offset += 4;
 1662               		.loc 3 37 0
 1663 0034 AE01      		movw r20,r28
 1664 0036 60E0      		ldi r22,0
 1665 0038 70E0      		ldi r23,0
 1666               	.LVL134:
 1667 003a 0E94 0000 		call _ZN3ros3Msg8varToArrIPhmEEvT_T0_
 1668               	.LVL135:
  39:./ros_lib/rosserial_msgs/Log.h ****       offset += length_msg;
 1669               		.loc 3 39 0
 1670 003e D801      		movw r26,r16
 1671 0040 1396      		adiw r26,3
 1672 0042 6D91      		ld r22,X+
 1673 0044 7C91      		ld r23,X
 1674 0046 1497      		sbiw r26,3+1
 1675 0048 AE01      		movw r20,r28
 1676 004a C701      		movw r24,r14
 1677 004c 0596      		adiw r24,5
 1678 004e 0E94 0000 		call memcpy
 1679               	.LVL136:
  42:./ros_lib/rosserial_msgs/Log.h **** 
 1680               		.loc 3 42 0
 1681 0052 CE01      		movw r24,r28
 1682 0054 0596      		adiw r24,5
 1683               	.LVL137:
 1684               	/* epilogue start */
 1685 0056 DF91      		pop r29
 1686 0058 CF91      		pop r28
 1687               	.LVL138:
 1688 005a 1F91      		pop r17
 1689 005c 0F91      		pop r16
 1690               	.LVL139:
 1691 005e FF90      		pop r15
 1692 0060 EF90      		pop r14
 1693               	.LVL140:
 1694 0062 0895      		ret
 1695               		.cfi_endproc
 1696               	.LFE47:
 1698               		.section	.text._ZNK14rosserial_msgs9TopicInfo9serializeEPh,"axG",@progbits,_ZNK14rosserial_msgs9To
 1699               		.weak	_ZNK14rosserial_msgs9TopicInfo9serializeEPh
 1701               	_ZNK14rosserial_msgs9TopicInfo9serializeEPh:
 1702               	.LFB40:
  43:./ros_lib/rosserial_msgs/TopicInfo.h ****     {
 1703               		.loc 2 43 0
 1704               		.cfi_startproc
 1705               	.LVL141:
 1706 0000 CF92      		push r12
 1707               	.LCFI40:
 1708               		.cfi_def_cfa_offset 4
 1709               		.cfi_offset 12, -3
 1710 0002 DF92      		push r13
 1711               	.LCFI41:
 1712               		.cfi_def_cfa_offset 5
 1713               		.cfi_offset 13, -4
 1714 0004 EF92      		push r14
 1715               	.LCFI42:
 1716               		.cfi_def_cfa_offset 6
 1717               		.cfi_offset 14, -5
 1718 0006 FF92      		push r15
 1719               	.LCFI43:
 1720               		.cfi_def_cfa_offset 7
 1721               		.cfi_offset 15, -6
 1722 0008 0F93      		push r16
 1723               	.LCFI44:
 1724               		.cfi_def_cfa_offset 8
 1725               		.cfi_offset 16, -7
 1726 000a 1F93      		push r17
 1727               	.LCFI45:
 1728               		.cfi_def_cfa_offset 9
 1729               		.cfi_offset 17, -8
 1730 000c CF93      		push r28
 1731               	.LCFI46:
 1732               		.cfi_def_cfa_offset 10
 1733               		.cfi_offset 28, -9
 1734 000e DF93      		push r29
 1735               	.LCFI47:
 1736               		.cfi_def_cfa_offset 11
 1737               		.cfi_offset 29, -10
 1738               	/* prologue: function */
 1739               	/* frame size = 0 */
 1740               	/* stack size = 8 */
 1741               	.L__stack_usage = 8
 1742 0010 7C01      		movw r14,r24
 1743 0012 8B01      		movw r16,r22
 1744               	.LVL142:
  46:./ros_lib/rosserial_msgs/TopicInfo.h ****       *(outbuffer + offset + 1) = (this->topic_id >> (8 * 1)) & 0xFF;
 1745               		.loc 2 46 0
 1746 0014 DC01      		movw r26,r24
 1747 0016 1296      		adiw r26,2
 1748 0018 8C91      		ld r24,X
 1749 001a 1297      		sbiw r26,2
 1750               	.LVL143:
 1751 001c FB01      		movw r30,r22
 1752 001e 8083      		st Z,r24
  47:./ros_lib/rosserial_msgs/TopicInfo.h ****       offset += sizeof(this->topic_id);
 1753               		.loc 2 47 0
 1754 0020 1396      		adiw r26,3
 1755 0022 8C91      		ld r24,X
 1756 0024 1397      		sbiw r26,3
 1757 0026 8183      		std Z+1,r24
 1758               	.LVL144:
  49:./ros_lib/rosserial_msgs/TopicInfo.h ****       varToArr(outbuffer + offset, length_topic_name);
 1759               		.loc 2 49 0
 1760 0028 1496      		adiw r26,4
 1761 002a ED91      		ld r30,X+
 1762 002c FC91      		ld r31,X
 1763 002e 1597      		sbiw r26,4+1
 1764 0030 EF01      		movw r28,r30
 1765               		0:
 1766 0032 0990      		ld __tmp_reg__,Y+
 1767 0034 0020      		tst __tmp_reg__
 1768 0036 01F4      		brne 0b
 1769 0038 2197      		sbiw r28,1
 1770 003a CE1B      		sub r28,r30
 1771 003c DF0B      		sbc r29,r31
 1772               	.LVL145:
  50:./ros_lib/rosserial_msgs/TopicInfo.h ****       offset += 4;
 1773               		.loc 2 50 0
 1774 003e AE01      		movw r20,r28
 1775 0040 60E0      		ldi r22,0
 1776 0042 70E0      		ldi r23,0
 1777               	.LVL146:
 1778 0044 C801      		movw r24,r16
 1779 0046 0296      		adiw r24,2
 1780 0048 0E94 0000 		call _ZN3ros3Msg8varToArrIPhmEEvT_T0_
 1781               	.LVL147:
  52:./ros_lib/rosserial_msgs/TopicInfo.h ****       offset += length_topic_name;
 1782               		.loc 2 52 0
 1783 004c D701      		movw r26,r14
 1784 004e 1496      		adiw r26,4
 1785 0050 6D91      		ld r22,X+
 1786 0052 7C91      		ld r23,X
 1787 0054 1597      		sbiw r26,4+1
 1788 0056 AE01      		movw r20,r28
 1789 0058 C801      		movw r24,r16
 1790 005a 0696      		adiw r24,6
 1791 005c 0E94 0000 		call memcpy
 1792               	.LVL148:
  53:./ros_lib/rosserial_msgs/TopicInfo.h ****       uint32_t length_message_type = strlen(this->message_type);
 1793               		.loc 2 53 0
 1794 0060 CE01      		movw r24,r28
 1795 0062 0696      		adiw r24,6
 1796               	.LVL149:
  54:./ros_lib/rosserial_msgs/TopicInfo.h ****       varToArr(outbuffer + offset, length_message_type);
 1797               		.loc 2 54 0
 1798 0064 F701      		movw r30,r14
 1799 0066 A681      		ldd r26,Z+6
 1800 0068 B781      		ldd r27,Z+7
 1801 006a FD01      		movw r30,r26
 1802               		0:
 1803 006c 0190      		ld __tmp_reg__,Z+
 1804 006e 0020      		tst __tmp_reg__
 1805 0070 01F4      		brne 0b
 1806 0072 3197      		sbiw r30,1
 1807 0074 6F01      		movw r12,r30
 1808 0076 CA1A      		sub r12,r26
 1809 0078 DB0A      		sbc r13,r27
 1810               	.LVL150:
  55:./ros_lib/rosserial_msgs/TopicInfo.h ****       offset += 4;
 1811               		.loc 2 55 0
 1812 007a A601      		movw r20,r12
 1813 007c 60E0      		ldi r22,0
 1814 007e 70E0      		ldi r23,0
 1815 0080 800F      		add r24,r16
 1816 0082 911F      		adc r25,r17
 1817               	.LVL151:
 1818 0084 0E94 0000 		call _ZN3ros3Msg8varToArrIPhmEEvT_T0_
 1819               	.LVL152:
  57:./ros_lib/rosserial_msgs/TopicInfo.h ****       offset += length_message_type;
 1820               		.loc 2 57 0
 1821 0088 2A96      		adiw r28,10
 1822               	.LVL153:
 1823 008a D701      		movw r26,r14
 1824 008c 1696      		adiw r26,6
 1825 008e 6D91      		ld r22,X+
 1826 0090 7C91      		ld r23,X
 1827 0092 1797      		sbiw r26,6+1
 1828 0094 A601      		movw r20,r12
 1829 0096 C801      		movw r24,r16
 1830 0098 8C0F      		add r24,r28
 1831 009a 9D1F      		adc r25,r29
 1832 009c 0E94 0000 		call memcpy
 1833               	.LVL154:
  58:./ros_lib/rosserial_msgs/TopicInfo.h ****       uint32_t length_md5sum = strlen(this->md5sum);
 1834               		.loc 2 58 0
 1835 00a0 CC0D      		add r28,r12
 1836 00a2 DD1D      		adc r29,r13
 1837               	.LVL155:
  59:./ros_lib/rosserial_msgs/TopicInfo.h ****       varToArr(outbuffer + offset, length_md5sum);
 1838               		.loc 2 59 0
 1839 00a4 D701      		movw r26,r14
 1840 00a6 1896      		adiw r26,8
 1841 00a8 ED91      		ld r30,X+
 1842 00aa FC91      		ld r31,X
 1843 00ac 1997      		sbiw r26,8+1
 1844 00ae DF01      		movw r26,r30
 1845               		0:
 1846 00b0 0D90      		ld __tmp_reg__,X+
 1847 00b2 0020      		tst __tmp_reg__
 1848 00b4 01F4      		brne 0b
 1849 00b6 1197      		sbiw r26,1
 1850 00b8 6D01      		movw r12,r26
 1851               	.LVL156:
 1852 00ba CE1A      		sub r12,r30
 1853 00bc DF0A      		sbc r13,r31
 1854               	.LVL157:
  60:./ros_lib/rosserial_msgs/TopicInfo.h ****       offset += 4;
 1855               		.loc 2 60 0
 1856 00be A601      		movw r20,r12
 1857 00c0 60E0      		ldi r22,0
 1858 00c2 70E0      		ldi r23,0
 1859 00c4 C801      		movw r24,r16
 1860 00c6 8C0F      		add r24,r28
 1861 00c8 9D1F      		adc r25,r29
 1862 00ca 0E94 0000 		call _ZN3ros3Msg8varToArrIPhmEEvT_T0_
 1863               	.LVL158:
  62:./ros_lib/rosserial_msgs/TopicInfo.h ****       offset += length_md5sum;
 1864               		.loc 2 62 0
 1865 00ce 2496      		adiw r28,4
 1866               	.LVL159:
 1867 00d0 F701      		movw r30,r14
 1868 00d2 6085      		ldd r22,Z+8
 1869 00d4 7185      		ldd r23,Z+9
 1870 00d6 A601      		movw r20,r12
 1871 00d8 C801      		movw r24,r16
 1872 00da 8C0F      		add r24,r28
 1873 00dc 9D1F      		adc r25,r29
 1874 00de 0E94 0000 		call memcpy
 1875               	.LVL160:
  63:./ros_lib/rosserial_msgs/TopicInfo.h ****       union {
 1876               		.loc 2 63 0
 1877 00e2 C601      		movw r24,r12
 1878 00e4 8C0F      		add r24,r28
 1879 00e6 9D1F      		adc r25,r29
 1880               	.LVL161:
  68:./ros_lib/rosserial_msgs/TopicInfo.h ****       *(outbuffer + offset + 0) = (u_buffer_size.base >> (8 * 0)) & 0xFF;
 1881               		.loc 2 68 0
 1882 00e8 D701      		movw r26,r14
 1883 00ea 1A96      		adiw r26,10
 1884 00ec 6C91      		ld r22,X
 1885 00ee 1A97      		sbiw r26,10
  69:./ros_lib/rosserial_msgs/TopicInfo.h ****       *(outbuffer + offset + 1) = (u_buffer_size.base >> (8 * 1)) & 0xFF;
 1886               		.loc 2 69 0
 1887 00f0 1B96      		adiw r26,11
 1888 00f2 4C91      		ld r20,X
 1889 00f4 1B97      		sbiw r26,11
 1890 00f6 1C96      		adiw r26,12
 1891 00f8 3C91      		ld r19,X
 1892 00fa 1C97      		sbiw r26,12
 1893 00fc 1D96      		adiw r26,13
 1894 00fe 2C91      		ld r18,X
 1895 0100 F801      		movw r30,r16
 1896 0102 E80F      		add r30,r24
 1897 0104 F91F      		adc r31,r25
 1898 0106 6083      		st Z,r22
  70:./ros_lib/rosserial_msgs/TopicInfo.h ****       *(outbuffer + offset + 2) = (u_buffer_size.base >> (8 * 2)) & 0xFF;
 1899               		.loc 2 70 0
 1900 0108 4183      		std Z+1,r20
  71:./ros_lib/rosserial_msgs/TopicInfo.h ****       *(outbuffer + offset + 3) = (u_buffer_size.base >> (8 * 3)) & 0xFF;
 1901               		.loc 2 71 0
 1902 010a 3283      		std Z+2,r19
  72:./ros_lib/rosserial_msgs/TopicInfo.h ****       offset += sizeof(this->buffer_size);
 1903               		.loc 2 72 0
 1904 010c 2383      		std Z+3,r18
 1905               	.LVL162:
  75:./ros_lib/rosserial_msgs/TopicInfo.h **** 
 1906               		.loc 2 75 0
 1907 010e 0496      		adiw r24,4
 1908               	.LVL163:
 1909               	/* epilogue start */
 1910 0110 DF91      		pop r29
 1911 0112 CF91      		pop r28
 1912 0114 1F91      		pop r17
 1913 0116 0F91      		pop r16
 1914               	.LVL164:
 1915 0118 FF90      		pop r15
 1916 011a EF90      		pop r14
 1917               	.LVL165:
 1918 011c DF90      		pop r13
 1919 011e CF90      		pop r12
 1920               	.LVL166:
 1921 0120 0895      		ret
 1922               		.cfi_endproc
 1923               	.LFE40:
 1925               		.section	.text._ZN3ros3Msg8arrToVarImPhEEvRT_T0_,"axG",@progbits,_ZN3ros3Msg8arrToVarImPhEEvRT_T0_
 1926               		.weak	_ZN3ros3Msg8arrToVarImPhEEvRT_T0_
 1928               	_ZN3ros3Msg8arrToVarImPhEEvRT_T0_:
 1929               	.LFB154:
 193:./ros_lib/ros/msg.h **** 
 194:./ros_lib/ros/msg.h ****   // Copy data from a byte array into variable
 195:./ros_lib/ros/msg.h ****   template<typename V, typename A>
 196:./ros_lib/ros/msg.h ****   static void arrToVar(V& var, const A arr)
 1930               		.loc 11 196 0
 1931               		.cfi_startproc
 1932               	.LVL167:
 1933 0000 CF92      		push r12
 1934               	.LCFI48:
 1935               		.cfi_def_cfa_offset 4
 1936               		.cfi_offset 12, -3
 1937 0002 DF92      		push r13
 1938               	.LCFI49:
 1939               		.cfi_def_cfa_offset 5
 1940               		.cfi_offset 13, -4
 1941 0004 EF92      		push r14
 1942               	.LCFI50:
 1943               		.cfi_def_cfa_offset 6
 1944               		.cfi_offset 14, -5
 1945 0006 FF92      		push r15
 1946               	.LCFI51:
 1947               		.cfi_def_cfa_offset 7
 1948               		.cfi_offset 15, -6
 1949               	/* prologue: function */
 1950               	/* frame size = 0 */
 1951               	/* stack size = 4 */
 1952               	.L__stack_usage = 4
 1953 0008 FC01      		movw r30,r24
 197:./ros_lib/ros/msg.h ****   {
 198:./ros_lib/ros/msg.h ****     var = 0;
 1954               		.loc 11 198 0
 1955 000a 1082      		st Z,__zero_reg__
 1956 000c 1182      		std Z+1,__zero_reg__
 1957 000e 1282      		std Z+2,__zero_reg__
 1958 0010 1382      		std Z+3,__zero_reg__
 1959               	.LVL168:
 1960 0012 DB01      		movw r26,r22
 1961 0014 20E0      		ldi r18,0
 1962 0016 30E0      		ldi r19,0
 1963               	.LVL169:
 1964               	.L46:
 1965               	.LBB117:
 199:./ros_lib/ros/msg.h ****     for (size_t i = 0; i < sizeof(V); i++)
 200:./ros_lib/ros/msg.h ****       var |= (arr[i] << (8 * i));
 1966               		.loc 11 200 0 discriminator 2
 1967 0018 4D91      		ld r20,X+
 1968               	.LVL170:
 1969 001a 50E0      		ldi r21,0
 1970 001c 022E      		mov r0,r18
 1971 001e 00C0      		rjmp 2f
 1972               		1:
 1973 0020 440F      		lsl r20
 1974 0022 551F      		rol r21
 1975               		2:
 1976 0024 0A94      		dec r0
 1977 0026 02F4      		brpl 1b
 1978 0028 052E      		mov __tmp_reg__,r21
 1979 002a 000C      		lsl r0
 1980 002c 660B      		sbc r22,r22
 1981 002e 770B      		sbc r23,r23
 1982 0030 C080      		ld r12,Z
 1983 0032 D180      		ldd r13,Z+1
 1984 0034 E280      		ldd r14,Z+2
 1985 0036 F380      		ldd r15,Z+3
 1986 0038 4C29      		or r20,r12
 1987 003a 5D29      		or r21,r13
 1988 003c 6E29      		or r22,r14
 1989 003e 7F29      		or r23,r15
 1990 0040 4083      		st Z,r20
 1991 0042 5183      		std Z+1,r21
 1992 0044 6283      		std Z+2,r22
 1993 0046 7383      		std Z+3,r23
 1994               	.LVL171:
 1995 0048 285F      		subi r18,-8
 1996 004a 3F4F      		sbci r19,-1
 199:./ros_lib/ros/msg.h ****     for (size_t i = 0; i < sizeof(V); i++)
 1997               		.loc 11 199 0 discriminator 2
 1998 004c 2032      		cpi r18,32
 1999 004e 3105      		cpc r19,__zero_reg__
 2000 0050 01F4      		brne .L46
 2001               	/* epilogue start */
 2002               	.LBE117:
 201:./ros_lib/ros/msg.h ****   }
 2003               		.loc 11 201 0
 2004 0052 FF90      		pop r15
 2005 0054 EF90      		pop r14
 2006 0056 DF90      		pop r13
 2007 0058 CF90      		pop r12
 2008 005a 0895      		ret
 2009               		.cfi_endproc
 2010               	.LFE154:
 2012               		.section	.text._ZN14rosserial_msgs3Log11deserializeEPh,"axG",@progbits,_ZN14rosserial_msgs3Log11de
 2013               		.weak	_ZN14rosserial_msgs3Log11deserializeEPh
 2015               	_ZN14rosserial_msgs3Log11deserializeEPh:
 2016               	.LFB48:
  44:./ros_lib/rosserial_msgs/Log.h ****     {
 2017               		.loc 3 44 0
 2018               		.cfi_startproc
 2019               	.LVL172:
 2020 0000 4F92      		push r4
 2021               	.LCFI52:
 2022               		.cfi_def_cfa_offset 4
 2023               		.cfi_offset 4, -3
 2024 0002 5F92      		push r5
 2025               	.LCFI53:
 2026               		.cfi_def_cfa_offset 5
 2027               		.cfi_offset 5, -4
 2028 0004 6F92      		push r6
 2029               	.LCFI54:
 2030               		.cfi_def_cfa_offset 6
 2031               		.cfi_offset 6, -5
 2032 0006 7F92      		push r7
 2033               	.LCFI55:
 2034               		.cfi_def_cfa_offset 7
 2035               		.cfi_offset 7, -6
 2036 0008 8F92      		push r8
 2037               	.LCFI56:
 2038               		.cfi_def_cfa_offset 8
 2039               		.cfi_offset 8, -7
 2040 000a 9F92      		push r9
 2041               	.LCFI57:
 2042               		.cfi_def_cfa_offset 9
 2043               		.cfi_offset 9, -8
 2044 000c AF92      		push r10
 2045               	.LCFI58:
 2046               		.cfi_def_cfa_offset 10
 2047               		.cfi_offset 10, -9
 2048 000e BF92      		push r11
 2049               	.LCFI59:
 2050               		.cfi_def_cfa_offset 11
 2051               		.cfi_offset 11, -10
 2052 0010 EF92      		push r14
 2053               	.LCFI60:
 2054               		.cfi_def_cfa_offset 12
 2055               		.cfi_offset 14, -11
 2056 0012 FF92      		push r15
 2057               	.LCFI61:
 2058               		.cfi_def_cfa_offset 13
 2059               		.cfi_offset 15, -12
 2060 0014 0F93      		push r16
 2061               	.LCFI62:
 2062               		.cfi_def_cfa_offset 14
 2063               		.cfi_offset 16, -13
 2064 0016 1F93      		push r17
 2065               	.LCFI63:
 2066               		.cfi_def_cfa_offset 15
 2067               		.cfi_offset 17, -14
 2068 0018 CF93      		push r28
 2069               	.LCFI64:
 2070               		.cfi_def_cfa_offset 16
 2071               		.cfi_offset 28, -15
 2072 001a DF93      		push r29
 2073               	.LCFI65:
 2074               		.cfi_def_cfa_offset 17
 2075               		.cfi_offset 29, -16
 2076 001c 00D0      		rcall .
 2077 001e 1F92      		push __zero_reg__
 2078               	.LCFI66:
 2079               		.cfi_def_cfa_offset 21
 2080 0020 CDB7      		in r28,__SP_L__
 2081 0022 DEB7      		in r29,__SP_H__
 2082               	.LCFI67:
 2083               		.cfi_def_cfa_register 28
 2084               	/* prologue: function */
 2085               	/* frame size = 4 */
 2086               	/* stack size = 18 */
 2087               	.L__stack_usage = 18
 2088 0024 7C01      		movw r14,r24
 2089 0026 8B01      		movw r16,r22
 2090               	.LVL173:
  47:./ros_lib/rosserial_msgs/Log.h ****       offset += sizeof(this->level);
 2091               		.loc 3 47 0
 2092 0028 FB01      		movw r30,r22
 2093 002a 8191      		ld r24,Z+
 2094               	.LVL174:
 2095 002c BF01      		movw r22,r30
 2096               	.LVL175:
 2097 002e F701      		movw r30,r14
 2098 0030 8283      		std Z+2,r24
 2099               	.LVL176:
  50:./ros_lib/rosserial_msgs/Log.h ****       offset += 4;
 2100               		.loc 3 50 0
 2101 0032 CE01      		movw r24,r28
 2102 0034 0196      		adiw r24,1
 2103 0036 0E94 0000 		call _ZN3ros3Msg8arrToVarImPhEEvRT_T0_
 2104               	.LVL177:
 2105               	.LBB118:
  52:./ros_lib/rosserial_msgs/Log.h ****           inbuffer[k-1]=inbuffer[k];
 2106               		.loc 3 52 0
 2107 003a 8981      		ldd r24,Y+1
 2108 003c 9A81      		ldd r25,Y+2
 2109 003e AB81      		ldd r26,Y+3
 2110 0040 BC81      		ldd r27,Y+4
 2111 0042 4C01      		movw r8,r24
 2112 0044 5D01      		movw r10,r26
 2113 0046 F5E0      		ldi r31,5
 2114 0048 8F0E      		add r8,r31
 2115 004a 911C      		adc r9,__zero_reg__
 2116 004c A11C      		adc r10,__zero_reg__
 2117 004e B11C      		adc r11,__zero_reg__
 2118 0050 A801      		movw r20,r16
 2119 0052 4C5F      		subi r20,-4
 2120 0054 5F4F      		sbci r21,-1
 2121 0056 FA01      		movw r30,r20
 2122 0058 25E0      		ldi r18,lo8(5)
 2123 005a 30E0      		ldi r19,0
 2124               	.LVL178:
 2125               	.L50:
  52:./ros_lib/rosserial_msgs/Log.h ****           inbuffer[k-1]=inbuffer[k];
 2126               		.loc 3 52 0 is_stmt 0 discriminator 3
 2127 005c 2901      		movw r4,r18
 2128 005e 612C      		mov r6,__zero_reg__
 2129 0060 712C      		mov r7,__zero_reg__
 2130 0062 4814      		cp r4,r8
 2131 0064 5904      		cpc r5,r9
 2132 0066 6A04      		cpc r6,r10
 2133 0068 7B04      		cpc r7,r11
 2134 006a 00F4      		brsh .L49
  53:./ros_lib/rosserial_msgs/Log.h ****       }
 2135               		.loc 3 53 0 is_stmt 1 discriminator 2
 2136 006c 6181      		ldd r22,Z+1
 2137 006e 6193      		st Z+,r22
  52:./ros_lib/rosserial_msgs/Log.h ****           inbuffer[k-1]=inbuffer[k];
 2138               		.loc 3 52 0 discriminator 2
 2139 0070 2F5F      		subi r18,-1
 2140 0072 3F4F      		sbci r19,-1
 2141               	.LVL179:
 2142 0074 00C0      		rjmp .L50
 2143               	.LVL180:
 2144               	.L49:
 2145               	.LBE118:
  55:./ros_lib/rosserial_msgs/Log.h ****       this->msg = (char *)(inbuffer + offset-1);
 2146               		.loc 3 55 0
 2147 0076 F801      		movw r30,r16
 2148 0078 E80F      		add r30,r24
 2149 007a F91F      		adc r31,r25
 2150 007c 1482      		std Z+4,__zero_reg__
  56:./ros_lib/rosserial_msgs/Log.h ****       offset += length_msg;
 2151               		.loc 3 56 0
 2152 007e F701      		movw r30,r14
 2153 0080 5483      		std Z+4,r21
 2154 0082 4383      		std Z+3,r20
 2155               	.LVL181:
  59:./ros_lib/rosserial_msgs/Log.h **** 
 2156               		.loc 3 59 0
 2157 0084 0596      		adiw r24,5
 2158               	.LVL182:
 2159               	/* epilogue start */
 2160 0086 0F90      		pop __tmp_reg__
 2161 0088 0F90      		pop __tmp_reg__
 2162 008a 0F90      		pop __tmp_reg__
 2163 008c 0F90      		pop __tmp_reg__
 2164 008e DF91      		pop r29
 2165 0090 CF91      		pop r28
 2166               	.LVL183:
 2167 0092 1F91      		pop r17
 2168               	.LVL184:
 2169 0094 0F91      		pop r16
 2170               	.LVL185:
 2171 0096 FF90      		pop r15
 2172               	.LVL186:
 2173 0098 EF90      		pop r14
 2174               	.LVL187:
 2175 009a BF90      		pop r11
 2176               	.LVL188:
 2177 009c AF90      		pop r10
 2178               	.LVL189:
 2179 009e 9F90      		pop r9
 2180               	.LVL190:
 2181 00a0 8F90      		pop r8
 2182               	.LVL191:
 2183 00a2 7F90      		pop r7
 2184               	.LVL192:
 2185 00a4 6F90      		pop r6
 2186               	.LVL193:
 2187 00a6 5F90      		pop r5
 2188               	.LVL194:
 2189 00a8 4F90      		pop r4
 2190               	.LVL195:
 2191 00aa 0895      		ret
 2192               		.cfi_endproc
 2193               	.LFE48:
 2195               		.section	.text._ZN14rosserial_msgs9TopicInfo11deserializeEPh,"axG",@progbits,_ZN14rosserial_msgs9T
 2196               		.weak	_ZN14rosserial_msgs9TopicInfo11deserializeEPh
 2198               	_ZN14rosserial_msgs9TopicInfo11deserializeEPh:
 2199               	.LFB41:
  77:./ros_lib/rosserial_msgs/TopicInfo.h ****     {
 2200               		.loc 2 77 0
 2201               		.cfi_startproc
 2202               	.LVL196:
 2203 0000 4F92      		push r4
 2204               	.LCFI68:
 2205               		.cfi_def_cfa_offset 4
 2206               		.cfi_offset 4, -3
 2207 0002 5F92      		push r5
 2208               	.LCFI69:
 2209               		.cfi_def_cfa_offset 5
 2210               		.cfi_offset 5, -4
 2211 0004 6F92      		push r6
 2212               	.LCFI70:
 2213               		.cfi_def_cfa_offset 6
 2214               		.cfi_offset 6, -5
 2215 0006 7F92      		push r7
 2216               	.LCFI71:
 2217               		.cfi_def_cfa_offset 7
 2218               		.cfi_offset 7, -6
 2219 0008 8F92      		push r8
 2220               	.LCFI72:
 2221               		.cfi_def_cfa_offset 8
 2222               		.cfi_offset 8, -7
 2223 000a 9F92      		push r9
 2224               	.LCFI73:
 2225               		.cfi_def_cfa_offset 9
 2226               		.cfi_offset 9, -8
 2227 000c AF92      		push r10
 2228               	.LCFI74:
 2229               		.cfi_def_cfa_offset 10
 2230               		.cfi_offset 10, -9
 2231 000e BF92      		push r11
 2232               	.LCFI75:
 2233               		.cfi_def_cfa_offset 11
 2234               		.cfi_offset 11, -10
 2235 0010 CF92      		push r12
 2236               	.LCFI76:
 2237               		.cfi_def_cfa_offset 12
 2238               		.cfi_offset 12, -11
 2239 0012 DF92      		push r13
 2240               	.LCFI77:
 2241               		.cfi_def_cfa_offset 13
 2242               		.cfi_offset 13, -12
 2243 0014 EF92      		push r14
 2244               	.LCFI78:
 2245               		.cfi_def_cfa_offset 14
 2246               		.cfi_offset 14, -13
 2247 0016 FF92      		push r15
 2248               	.LCFI79:
 2249               		.cfi_def_cfa_offset 15
 2250               		.cfi_offset 15, -14
 2251 0018 0F93      		push r16
 2252               	.LCFI80:
 2253               		.cfi_def_cfa_offset 16
 2254               		.cfi_offset 16, -15
 2255 001a 1F93      		push r17
 2256               	.LCFI81:
 2257               		.cfi_def_cfa_offset 17
 2258               		.cfi_offset 17, -16
 2259 001c CF93      		push r28
 2260               	.LCFI82:
 2261               		.cfi_def_cfa_offset 18
 2262               		.cfi_offset 28, -17
 2263 001e DF93      		push r29
 2264               	.LCFI83:
 2265               		.cfi_def_cfa_offset 19
 2266               		.cfi_offset 29, -18
 2267 0020 CDB7      		in r28,__SP_L__
 2268 0022 DEB7      		in r29,__SP_H__
 2269               	.LCFI84:
 2270               		.cfi_def_cfa_register 28
 2271 0024 2C97      		sbiw r28,12
 2272               	.LCFI85:
 2273               		.cfi_def_cfa_offset 31
 2274 0026 0FB6      		in __tmp_reg__,__SREG__
 2275 0028 F894      		cli
 2276 002a DEBF      		out __SP_H__,r29
 2277 002c 0FBE      		out __SREG__,__tmp_reg__
 2278 002e CDBF      		out __SP_L__,r28
 2279               	/* prologue: function */
 2280               	/* frame size = 12 */
 2281               	/* stack size = 28 */
 2282               	.L__stack_usage = 28
 2283 0030 7C01      		movw r14,r24
 2284 0032 8B01      		movw r16,r22
 2285               	.LVL197:
  80:./ros_lib/rosserial_msgs/TopicInfo.h ****       this->topic_id |= ((uint16_t) (*(inbuffer + offset + 1))) << (8 * 1);
 2286               		.loc 2 80 0
 2287 0034 DB01      		movw r26,r22
 2288 0036 8C91      		ld r24,X
 2289               	.LVL198:
 2290 0038 90E0      		ldi r25,0
 2291 003a F701      		movw r30,r14
 2292 003c 9383      		std Z+3,r25
 2293 003e 8283      		std Z+2,r24
  81:./ros_lib/rosserial_msgs/TopicInfo.h ****       offset += sizeof(this->topic_id);
 2294               		.loc 2 81 0
 2295 0040 1196      		adiw r26,1
 2296 0042 2C91      		ld r18,X
 2297 0044 922B      		or r25,r18
 2298 0046 9383      		std Z+3,r25
 2299 0048 8283      		std Z+2,r24
 2300               	.LVL199:
  84:./ros_lib/rosserial_msgs/TopicInfo.h ****       offset += 4;
 2301               		.loc 2 84 0
 2302 004a 6E5F      		subi r22,-2
 2303 004c 7F4F      		sbci r23,-1
 2304               	.LVL200:
 2305 004e CE01      		movw r24,r28
 2306 0050 0996      		adiw r24,9
 2307 0052 0E94 0000 		call _ZN3ros3Msg8arrToVarImPhEEvRT_T0_
 2308               	.LVL201:
 2309               	.LBB119:
  86:./ros_lib/rosserial_msgs/TopicInfo.h ****           inbuffer[k-1]=inbuffer[k];
 2310               		.loc 2 86 0
 2311 0056 8984      		ldd r8,Y+9
 2312 0058 9A84      		ldd r9,Y+10
 2313 005a AB84      		ldd r10,Y+11
 2314 005c BC84      		ldd r11,Y+12
 2315 005e 2401      		movw r4,r8
 2316 0060 3501      		movw r6,r10
 2317 0062 F6E0      		ldi r31,6
 2318 0064 4F0E      		add r4,r31
 2319 0066 511C      		adc r5,__zero_reg__
 2320 0068 611C      		adc r6,__zero_reg__
 2321 006a 711C      		adc r7,__zero_reg__
 2322 006c 9801      		movw r18,r16
 2323 006e 2B5F      		subi r18,-5
 2324 0070 3F4F      		sbci r19,-1
 2325 0072 F901      		movw r30,r18
 2326 0074 86E0      		ldi r24,lo8(6)
 2327 0076 90E0      		ldi r25,0
 2328               	.LVL202:
 2329               	.L53:
  86:./ros_lib/rosserial_msgs/TopicInfo.h ****           inbuffer[k-1]=inbuffer[k];
 2330               		.loc 2 86 0 is_stmt 0 discriminator 3
 2331 0078 AC01      		movw r20,r24
 2332 007a 60E0      		ldi r22,0
 2333 007c 70E0      		ldi r23,0
 2334 007e 4415      		cp r20,r4
 2335 0080 5505      		cpc r21,r5
 2336 0082 6605      		cpc r22,r6
 2337 0084 7705      		cpc r23,r7
 2338 0086 00F4      		brsh .L52
  87:./ros_lib/rosserial_msgs/TopicInfo.h ****       }
 2339               		.loc 2 87 0 is_stmt 1 discriminator 2
 2340 0088 4181      		ldd r20,Z+1
 2341 008a 4193      		st Z+,r20
  86:./ros_lib/rosserial_msgs/TopicInfo.h ****           inbuffer[k-1]=inbuffer[k];
 2342               		.loc 2 86 0 discriminator 2
 2343 008c 0196      		adiw r24,1
 2344               	.LVL203:
 2345 008e 00C0      		rjmp .L53
 2346               	.LVL204:
 2347               	.L52:
 2348               	.LBE119:
  89:./ros_lib/rosserial_msgs/TopicInfo.h ****       this->topic_name = (char *)(inbuffer + offset-1);
 2349               		.loc 2 89 0
 2350 0090 F801      		movw r30,r16
 2351 0092 E80D      		add r30,r8
 2352 0094 F91D      		adc r31,r9
 2353 0096 1582      		std Z+5,__zero_reg__
  90:./ros_lib/rosserial_msgs/TopicInfo.h ****       offset += length_topic_name;
 2354               		.loc 2 90 0
 2355 0098 D701      		movw r26,r14
 2356 009a 1596      		adiw r26,4+1
 2357 009c 3C93      		st X,r19
 2358 009e 2E93      		st -X,r18
 2359 00a0 1497      		sbiw r26,4
  91:./ros_lib/rosserial_msgs/TopicInfo.h ****       uint32_t length_message_type;
 2360               		.loc 2 91 0
 2361 00a2 B401      		movw r22,r8
 2362 00a4 6A5F      		subi r22,-6
 2363 00a6 7F4F      		sbci r23,-1
 2364               	.LVL205:
  93:./ros_lib/rosserial_msgs/TopicInfo.h ****       offset += 4;
 2365               		.loc 2 93 0
 2366 00a8 600F      		add r22,r16
 2367 00aa 711F      		adc r23,r17
 2368               	.LVL206:
 2369 00ac CE01      		movw r24,r28
 2370 00ae 0596      		adiw r24,5
 2371 00b0 0E94 0000 		call _ZN3ros3Msg8arrToVarImPhEEvRT_T0_
 2372               	.LVL207:
  94:./ros_lib/rosserial_msgs/TopicInfo.h ****       for(unsigned int k= offset; k< offset+length_message_type; ++k){
 2373               		.loc 2 94 0
 2374 00b4 BAE0      		ldi r27,10
 2375 00b6 8B0E      		add r8,r27
 2376 00b8 911C      		adc r9,__zero_reg__
 2377               	.LVL208:
 2378               	.LBB120:
  95:./ros_lib/rosserial_msgs/TopicInfo.h ****           inbuffer[k-1]=inbuffer[k];
 2379               		.loc 2 95 0
 2380 00ba 4D80      		ldd r4,Y+5
 2381 00bc 5E80      		ldd r5,Y+6
 2382 00be 6F80      		ldd r6,Y+7
 2383 00c0 7884      		ldd r7,Y+8
 2384 00c2 A401      		movw r20,r8
 2385 00c4 092C      		mov __tmp_reg__,r9
 2386 00c6 000C      		lsl r0
 2387 00c8 660B      		sbc r22,r22
 2388 00ca 770B      		sbc r23,r23
 2389 00cc 440D      		add r20,r4
 2390 00ce 551D      		adc r21,r5
 2391 00d0 661D      		adc r22,r6
 2392 00d2 771D      		adc r23,r7
 2393 00d4 D801      		movw r26,r16
 2394 00d6 A80D      		add r26,r8
 2395 00d8 B91D      		adc r27,r9
 2396               	.LVL209:
 2397               	.L55:
  95:./ros_lib/rosserial_msgs/TopicInfo.h ****           inbuffer[k-1]=inbuffer[k];
 2398               		.loc 2 95 0 is_stmt 0 discriminator 3
 2399 00da CD01      		movw r24,r26
 2400 00dc 801B      		sub r24,r16
 2401 00de 910B      		sbc r25,r17
 2402               	.LVL210:
 2403 00e0 5C01      		movw r10,r24
 2404 00e2 C12C      		mov r12,__zero_reg__
 2405 00e4 D12C      		mov r13,__zero_reg__
 2406 00e6 A416      		cp r10,r20
 2407 00e8 B506      		cpc r11,r21
 2408 00ea C606      		cpc r12,r22
 2409 00ec D706      		cpc r13,r23
 2410 00ee 00F4      		brsh .L54
  96:./ros_lib/rosserial_msgs/TopicInfo.h ****       }
 2411               		.loc 2 96 0 is_stmt 1 discriminator 2
 2412 00f0 8D91      		ld r24,X+
 2413               	.LVL211:
 2414 00f2 FD01      		movw r30,r26
 2415 00f4 3297      		sbiw r30,2
 2416 00f6 8083      		st Z,r24
 2417               	.LVL212:
  95:./ros_lib/rosserial_msgs/TopicInfo.h ****           inbuffer[k-1]=inbuffer[k];
 2418               		.loc 2 95 0 discriminator 2
 2419 00f8 00C0      		rjmp .L55
 2420               	.LVL213:
 2421               	.L54:
 2422               	.LBE120:
  98:./ros_lib/rosserial_msgs/TopicInfo.h ****       this->message_type = (char *)(inbuffer + offset-1);
 2423               		.loc 2 98 0
 2424 00fa 5401      		movw r10,r8
 2425               	.LVL214:
 2426 00fc A40C      		add r10,r4
 2427 00fe B51C      		adc r11,r5
 2428 0100 B801      		movw r22,r16
 2429 0102 6A0D      		add r22,r10
 2430 0104 7B1D      		adc r23,r11
 2431 0106 FB01      		movw r30,r22
 2432 0108 3197      		sbiw r30,1
 2433 010a 1082      		st Z,__zero_reg__
  99:./ros_lib/rosserial_msgs/TopicInfo.h ****       offset += length_message_type;
 2434               		.loc 2 99 0
 2435 010c C401      		movw r24,r8
 2436               	.LVL215:
 2437 010e 0197      		sbiw r24,1
 2438 0110 800F      		add r24,r16
 2439 0112 911F      		adc r25,r17
 2440 0114 F701      		movw r30,r14
 2441 0116 9783      		std Z+7,r25
 2442 0118 8683      		std Z+6,r24
 2443               	.LVL216:
 102:./ros_lib/rosserial_msgs/TopicInfo.h ****       offset += 4;
 2444               		.loc 2 102 0
 2445 011a CE01      		movw r24,r28
 2446 011c 0196      		adiw r24,1
 2447 011e 0E94 0000 		call _ZN3ros3Msg8arrToVarImPhEEvRT_T0_
 2448               	.LVL217:
 103:./ros_lib/rosserial_msgs/TopicInfo.h ****       for(unsigned int k= offset; k< offset+length_md5sum; ++k){
 2449               		.loc 2 103 0
 2450 0122 9501      		movw r18,r10
 2451 0124 2C5F      		subi r18,-4
 2452 0126 3F4F      		sbci r19,-1
 2453               	.LVL218:
 2454               	.LBB121:
 104:./ros_lib/rosserial_msgs/TopicInfo.h ****           inbuffer[k-1]=inbuffer[k];
 2455               		.loc 2 104 0
 2456 0128 8981      		ldd r24,Y+1
 2457 012a 9A81      		ldd r25,Y+2
 2458 012c AB81      		ldd r26,Y+3
 2459 012e BC81      		ldd r27,Y+4
 2460 0130 2901      		movw r4,r18
 2461 0132 032E      		mov __tmp_reg__,r19
 2462 0134 000C      		lsl r0
 2463 0136 6608      		sbc r6,r6
 2464 0138 7708      		sbc r7,r7
 2465 013a 480E      		add r4,r24
 2466 013c 591E      		adc r5,r25
 2467 013e 6A1E      		adc r6,r26
 2468 0140 7B1E      		adc r7,r27
 2469 0142 F501      		movw r30,r10
 2470 0144 3396      		adiw r30,3
 2471 0146 E00F      		add r30,r16
 2472 0148 F11F      		adc r31,r17
 2473 014a A901      		movw r20,r18
 2474               	.LVL219:
 2475               	.L57:
 104:./ros_lib/rosserial_msgs/TopicInfo.h ****           inbuffer[k-1]=inbuffer[k];
 2476               		.loc 2 104 0 is_stmt 0 discriminator 3
 2477 014c 4A01      		movw r8,r20
 2478 014e A12C      		mov r10,__zero_reg__
 2479 0150 B12C      		mov r11,__zero_reg__
 2480 0152 8414      		cp r8,r4
 2481 0154 9504      		cpc r9,r5
 2482 0156 A604      		cpc r10,r6
 2483 0158 B704      		cpc r11,r7
 2484 015a 00F4      		brsh .L56
 2485               	.LVL220:
 105:./ros_lib/rosserial_msgs/TopicInfo.h ****       }
 2486               		.loc 2 105 0 is_stmt 1 discriminator 2
 2487 015c 6181      		ldd r22,Z+1
 2488 015e 6193      		st Z+,r22
 104:./ros_lib/rosserial_msgs/TopicInfo.h ****           inbuffer[k-1]=inbuffer[k];
 2489               		.loc 2 104 0 discriminator 2
 2490 0160 4F5F      		subi r20,-1
 2491 0162 5F4F      		sbci r21,-1
 2492               	.LVL221:
 2493 0164 00C0      		rjmp .L57
 2494               	.LVL222:
 2495               	.L56:
 2496               	.LBE121:
 107:./ros_lib/rosserial_msgs/TopicInfo.h ****       this->md5sum = (char *)(inbuffer + offset-1);
 2497               		.loc 2 107 0
 2498 0166 820F      		add r24,r18
 2499 0168 931F      		adc r25,r19
 2500 016a F801      		movw r30,r16
 2501 016c E80F      		add r30,r24
 2502 016e F91F      		adc r31,r25
 2503 0170 DF01      		movw r26,r30
 2504 0172 1197      		sbiw r26,1
 2505 0174 1C92      		st X,__zero_reg__
 108:./ros_lib/rosserial_msgs/TopicInfo.h ****       offset += length_md5sum;
 2506               		.loc 2 108 0
 2507 0176 2150      		subi r18,1
 2508 0178 3109      		sbc r19,__zero_reg__
 2509               	.LVL223:
 2510 017a 020F      		add r16,r18
 2511 017c 131F      		adc r17,r19
 2512               	.LVL224:
 2513 017e D701      		movw r26,r14
 2514 0180 1996      		adiw r26,8+1
 2515 0182 1C93      		st X,r17
 2516 0184 0E93      		st -X,r16
 2517 0186 1897      		sbiw r26,8
 2518               	.LVL225:
 119:./ros_lib/rosserial_msgs/TopicInfo.h ****       offset += sizeof(this->buffer_size);
 2519               		.loc 2 119 0
 2520 0188 2181      		ldd r18,Z+1
 2521 018a 4281      		ldd r20,Z+2
 2522 018c 50E0      		ldi r21,0
 2523 018e 60E0      		ldi r22,0
 2524 0190 70E0      		ldi r23,0
 2525 0192 BA01      		movw r22,r20
 2526 0194 5527      		clr r21
 2527 0196 4427      		clr r20
 2528 0198 522B      		or r21,r18
 2529 019a 2081      		ld r18,Z
 2530 019c 422B      		or r20,r18
 2531 019e 2381      		ldd r18,Z+3
 2532 01a0 722B      		or r23,r18
 2533 01a2 F701      		movw r30,r14
 2534 01a4 4287      		std Z+10,r20
 2535 01a6 5387      		std Z+11,r21
 2536 01a8 6487      		std Z+12,r22
 2537 01aa 7587      		std Z+13,r23
 2538               	.LVL226:
 122:./ros_lib/rosserial_msgs/TopicInfo.h **** 
 2539               		.loc 2 122 0
 2540 01ac 0496      		adiw r24,4
 2541               	.LVL227:
 2542               	/* epilogue start */
 2543 01ae 2C96      		adiw r28,12
 2544 01b0 0FB6      		in __tmp_reg__,__SREG__
 2545 01b2 F894      		cli
 2546 01b4 DEBF      		out __SP_H__,r29
 2547 01b6 0FBE      		out __SREG__,__tmp_reg__
 2548 01b8 CDBF      		out __SP_L__,r28
 2549 01ba DF91      		pop r29
 2550 01bc CF91      		pop r28
 2551 01be 1F91      		pop r17
 2552 01c0 0F91      		pop r16
 2553 01c2 FF90      		pop r15
 2554 01c4 EF90      		pop r14
 2555               	.LVL228:
 2556 01c6 DF90      		pop r13
 2557 01c8 CF90      		pop r12
 2558 01ca BF90      		pop r11
 2559 01cc AF90      		pop r10
 2560 01ce 9F90      		pop r9
 2561 01d0 8F90      		pop r8
 2562               	.LVL229:
 2563 01d2 7F90      		pop r7
 2564 01d4 6F90      		pop r6
 2565 01d6 5F90      		pop r5
 2566 01d8 4F90      		pop r4
 2567 01da 0895      		ret
 2568               		.cfi_endproc
 2569               	.LFE41:
 2571               		.section	.text._ZN14rosserial_msgs20RequestParamResponse11deserializeEPh,"axG",@progbits,_ZN14ross
 2572               		.weak	_ZN14rosserial_msgs20RequestParamResponse11deserializeEPh
 2574               	_ZN14rosserial_msgs20RequestParamResponse11deserializeEPh:
 2575               	.LFB62:
 130:./ros_lib/rosserial_msgs/RequestParam.h ****     {
 2576               		.loc 4 130 0
 2577               		.cfi_startproc
 2578               	.LVL230:
 2579 0000 2F92      		push r2
 2580               	.LCFI86:
 2581               		.cfi_def_cfa_offset 4
 2582               		.cfi_offset 2, -3
 2583 0002 3F92      		push r3
 2584               	.LCFI87:
 2585               		.cfi_def_cfa_offset 5
 2586               		.cfi_offset 3, -4
 2587 0004 4F92      		push r4
 2588               	.LCFI88:
 2589               		.cfi_def_cfa_offset 6
 2590               		.cfi_offset 4, -5
 2591 0006 5F92      		push r5
 2592               	.LCFI89:
 2593               		.cfi_def_cfa_offset 7
 2594               		.cfi_offset 5, -6
 2595 0008 6F92      		push r6
 2596               	.LCFI90:
 2597               		.cfi_def_cfa_offset 8
 2598               		.cfi_offset 6, -7
 2599 000a 7F92      		push r7
 2600               	.LCFI91:
 2601               		.cfi_def_cfa_offset 9
 2602               		.cfi_offset 7, -8
 2603 000c 8F92      		push r8
 2604               	.LCFI92:
 2605               		.cfi_def_cfa_offset 10
 2606               		.cfi_offset 8, -9
 2607 000e 9F92      		push r9
 2608               	.LCFI93:
 2609               		.cfi_def_cfa_offset 11
 2610               		.cfi_offset 9, -10
 2611 0010 AF92      		push r10
 2612               	.LCFI94:
 2613               		.cfi_def_cfa_offset 12
 2614               		.cfi_offset 10, -11
 2615 0012 BF92      		push r11
 2616               	.LCFI95:
 2617               		.cfi_def_cfa_offset 13
 2618               		.cfi_offset 11, -12
 2619 0014 CF92      		push r12
 2620               	.LCFI96:
 2621               		.cfi_def_cfa_offset 14
 2622               		.cfi_offset 12, -13
 2623 0016 DF92      		push r13
 2624               	.LCFI97:
 2625               		.cfi_def_cfa_offset 15
 2626               		.cfi_offset 13, -14
 2627 0018 EF92      		push r14
 2628               	.LCFI98:
 2629               		.cfi_def_cfa_offset 16
 2630               		.cfi_offset 14, -15
 2631 001a FF92      		push r15
 2632               	.LCFI99:
 2633               		.cfi_def_cfa_offset 17
 2634               		.cfi_offset 15, -16
 2635 001c 0F93      		push r16
 2636               	.LCFI100:
 2637               		.cfi_def_cfa_offset 18
 2638               		.cfi_offset 16, -17
 2639 001e 1F93      		push r17
 2640               	.LCFI101:
 2641               		.cfi_def_cfa_offset 19
 2642               		.cfi_offset 17, -18
 2643 0020 CF93      		push r28
 2644               	.LCFI102:
 2645               		.cfi_def_cfa_offset 20
 2646               		.cfi_offset 28, -19
 2647 0022 DF93      		push r29
 2648               	.LCFI103:
 2649               		.cfi_def_cfa_offset 21
 2650               		.cfi_offset 29, -20
 2651 0024 CDB7      		in r28,__SP_L__
 2652 0026 DEB7      		in r29,__SP_H__
 2653               	.LCFI104:
 2654               		.cfi_def_cfa_register 28
 2655 0028 6097      		sbiw r28,16
 2656               	.LCFI105:
 2657               		.cfi_def_cfa_offset 37
 2658 002a 0FB6      		in __tmp_reg__,__SREG__
 2659 002c F894      		cli
 2660 002e DEBF      		out __SP_H__,r29
 2661 0030 0FBE      		out __SREG__,__tmp_reg__
 2662 0032 CDBF      		out __SP_L__,r28
 2663               	/* prologue: function */
 2664               	/* frame size = 16 */
 2665               	/* stack size = 34 */
 2666               	.L__stack_usage = 34
 2667 0034 8C01      		movw r16,r24
 2668 0036 6B01      		movw r12,r22
 2669               	.LVL231:
 136:./ros_lib/rosserial_msgs/RequestParam.h ****       offset += sizeof(this->ints_length);
 2670               		.loc 4 136 0
 2671 0038 DB01      		movw r26,r22
 2672 003a 8D90      		ld r8,X+
 2673 003c 9D90      		ld r9,X+
 2674 003e AD90      		ld r10,X+
 2675 0040 BC90      		ld r11,X
 2676               	.LVL232:
 138:./ros_lib/rosserial_msgs/RequestParam.h ****         this->ints = (int32_t*)realloc(this->ints, ints_lengthT * sizeof(int32_t));
 2677               		.loc 4 138 0
 2678 0042 FC01      		movw r30,r24
 2679 0044 8281      		ldd r24,Z+2
 2680 0046 9381      		ldd r25,Z+3
 2681 0048 A481      		ldd r26,Z+4
 2682 004a B581      		ldd r27,Z+5
 2683               	.LVL233:
 2684 004c 8815      		cp r24,r8
 2685 004e 9905      		cpc r25,r9
 2686 0050 AA05      		cpc r26,r10
 2687 0052 BB05      		cpc r27,r11
 2688 0054 00F4      		brsh .L59
 139:./ros_lib/rosserial_msgs/RequestParam.h ****       ints_length = ints_lengthT;
 2689               		.loc 4 139 0
 2690 0056 B401      		movw r22,r8
 2691               	.LVL234:
 2692 0058 660F      		lsl r22
 2693 005a 771F      		rol r23
 2694 005c 660F      		lsl r22
 2695 005e 771F      		rol r23
 2696 0060 8285      		ldd r24,Z+10
 2697 0062 9385      		ldd r25,Z+11
 2698 0064 0E94 0000 		call realloc
 2699               	.LVL235:
 2700 0068 D801      		movw r26,r16
 2701 006a 1B96      		adiw r26,10+1
 2702 006c 9C93      		st X,r25
 2703 006e 8E93      		st -X,r24
 2704 0070 1A97      		sbiw r26,10
 2705               	.L59:
 140:./ros_lib/rosserial_msgs/RequestParam.h ****       for( uint32_t i = 0; i < ints_length; i++){
 2706               		.loc 4 140 0
 2707 0072 F801      		movw r30,r16
 2708 0074 8282      		std Z+2,r8
 2709 0076 9382      		std Z+3,r9
 2710 0078 A482      		std Z+4,r10
 2711 007a B582      		std Z+5,r11
 2712               	.LVL236:
 2713 007c 9601      		movw r18,r12
 2714               	.LBB122:
 141:./ros_lib/rosserial_msgs/RequestParam.h ****       union {
 2715               		.loc 4 141 0
 2716 007e 812C      		mov r8,__zero_reg__
 2717 0080 912C      		mov r9,__zero_reg__
 2718 0082 5401      		movw r10,r8
 2719               	.LBE122:
 137:./ros_lib/rosserial_msgs/RequestParam.h ****       if(ints_lengthT > ints_length)
 2720               		.loc 4 137 0
 2721 0084 44E0      		ldi r20,lo8(4)
 2722 0086 50E0      		ldi r21,0
 2723               	.LBB125:
 2724               	.LBB123:
 153:./ros_lib/rosserial_msgs/RequestParam.h ****       }
 2725               		.loc 4 153 0
 2726 0088 B801      		movw r22,r16
 2727 008a 6A5F      		subi r22,-6
 2728 008c 7F4F      		sbci r23,-1
 2729               	.LVL237:
 2730               	.L61:
 2731 008e 2C5F      		subi r18,-4
 2732 0090 3F4F      		sbci r19,-1
 2733               	.LBE123:
 141:./ros_lib/rosserial_msgs/RequestParam.h ****       union {
 2734               		.loc 4 141 0 discriminator 3
 2735 0092 F801      		movw r30,r16
 2736 0094 8281      		ldd r24,Z+2
 2737 0096 9381      		ldd r25,Z+3
 2738 0098 A481      		ldd r26,Z+4
 2739 009a B581      		ldd r27,Z+5
 2740 009c FA01      		movw r30,r20
 2741 009e 3496      		adiw r30,4
 2742 00a0 1F01      		movw r2,r30
 2743 00a2 8816      		cp r8,r24
 2744 00a4 9906      		cpc r9,r25
 2745 00a6 AA06      		cpc r10,r26
 2746 00a8 BB06      		cpc r11,r27
 2747 00aa 00F4      		brsh .L60
 2748               	.LVL238:
 2749               	.LBB124:
 151:./ros_lib/rosserial_msgs/RequestParam.h ****       offset += sizeof(this->st_ints);
 2750               		.loc 4 151 0 discriminator 2
 2751 00ac D901      		movw r26,r18
 2752 00ae 1196      		adiw r26,1
 2753 00b0 FC90      		ld r15,X
 2754 00b2 1197      		sbiw r26,1
 2755 00b4 1296      		adiw r26,2
 2756 00b6 8C91      		ld r24,X
 2757 00b8 90E0      		ldi r25,0
 2758 00ba A0E0      		ldi r26,0
 2759 00bc B0E0      		ldi r27,0
 2760 00be DC01      		movw r26,r24
 2761 00c0 9927      		clr r25
 2762 00c2 8827      		clr r24
 2763 00c4 9F29      		or r25,r15
 2764 00c6 F901      		movw r30,r18
 2765 00c8 F080      		ld r15,Z
 2766 00ca 8F29      		or r24,r15
 2767 00cc F380      		ldd r15,Z+3
 2768 00ce BF29      		or r27,r15
 2769 00d0 F801      		movw r30,r16
 2770 00d2 8683      		std Z+6,r24
 2771 00d4 9783      		std Z+7,r25
 2772 00d6 A087      		std Z+8,r26
 2773 00d8 B187      		std Z+9,r27
 2774               	.LVL239:
 2775 00da DA01      		movw r26,r20
 2776               	.LVL240:
 2777 00dc A101      		movw r20,r2
 153:./ros_lib/rosserial_msgs/RequestParam.h ****       }
 2778               		.loc 4 153 0 discriminator 2
 2779 00de 1497      		sbiw r26,4
 2780 00e0 8285      		ldd r24,Z+10
 2781 00e2 9385      		ldd r25,Z+11
 2782 00e4 A80F      		add r26,r24
 2783 00e6 B91F      		adc r27,r25
 2784 00e8 84E0      		ldi r24,lo8(4)
 2785 00ea FB01      		movw r30,r22
 2786               		0:
 2787 00ec 0190      		ld r0,Z+
 2788 00ee 0D92      		st X+,r0
 2789 00f0 8A95      		dec r24
 2790 00f2 01F4      		brne 0b
 2791               	.LBE124:
 141:./ros_lib/rosserial_msgs/RequestParam.h ****       union {
 2792               		.loc 4 141 0 discriminator 2
 2793 00f4 FFEF      		ldi r31,-1
 2794 00f6 8F1A      		sub r8,r31
 2795 00f8 9F0A      		sbc r9,r31
 2796 00fa AF0A      		sbc r10,r31
 2797 00fc BF0A      		sbc r11,r31
 2798               	.LVL241:
 2799 00fe 00C0      		rjmp .L61
 2800               	.LVL242:
 2801               	.L60:
 2802               	.LBE125:
 155:./ros_lib/rosserial_msgs/RequestParam.h ****       floats_lengthT |= ((uint32_t) (*(inbuffer + offset + 1))) << (8 * 1); 
 2803               		.loc 4 155 0
 2804 0100 4601      		movw r8,r12
 2805               	.LVL243:
 2806 0102 840E      		add r8,r20
 2807 0104 951E      		adc r9,r21
 2808 0106 D401      		movw r26,r8
 2809 0108 8C91      		ld r24,X
 2810               	.LVL244:
 157:./ros_lib/rosserial_msgs/RequestParam.h ****       floats_lengthT |= ((uint32_t) (*(inbuffer + offset + 3))) << (8 * 3); 
 2811               		.loc 4 157 0
 2812 010a 1196      		adiw r26,1
 2813 010c 9C91      		ld r25,X
 2814 010e 1197      		sbiw r26,1
 2815 0110 1296      		adiw r26,2
 2816 0112 4C90      		ld r4,X
 2817 0114 1297      		sbiw r26,2
 2818 0116 512C      		mov r5,__zero_reg__
 2819 0118 612C      		mov r6,__zero_reg__
 2820 011a 712C      		mov r7,__zero_reg__
 2821 011c 3201      		movw r6,r4
 2822 011e 5524      		clr r5
 2823 0120 4424      		clr r4
 2824 0122 592A      		or r5,r25
 2825 0124 482A      		or r4,r24
 2826               	.LVL245:
 158:./ros_lib/rosserial_msgs/RequestParam.h ****       offset += sizeof(this->floats_length);
 2827               		.loc 4 158 0
 2828 0126 1396      		adiw r26,3
 2829 0128 8C91      		ld r24,X
 2830 012a 782A      		or r7,r24
 159:./ros_lib/rosserial_msgs/RequestParam.h ****       if(floats_lengthT > floats_length)
 2831               		.loc 4 159 0
 2832 012c 5F01      		movw r10,r30
 2833               	.LVL246:
 160:./ros_lib/rosserial_msgs/RequestParam.h ****         this->floats = (float*)realloc(this->floats, floats_lengthT * sizeof(float));
 2834               		.loc 4 160 0
 2835 012e F801      		movw r30,r16
 2836 0130 8485      		ldd r24,Z+12
 2837 0132 9585      		ldd r25,Z+13
 2838 0134 A685      		ldd r26,Z+14
 2839 0136 B785      		ldd r27,Z+15
 2840 0138 8415      		cp r24,r4
 2841 013a 9505      		cpc r25,r5
 2842 013c A605      		cpc r26,r6
 2843 013e B705      		cpc r27,r7
 2844 0140 00F4      		brsh .L62
 2845               	.LVL247:
 161:./ros_lib/rosserial_msgs/RequestParam.h ****       floats_length = floats_lengthT;
 2846               		.loc 4 161 0
 2847 0142 B201      		movw r22,r4
 2848 0144 660F      		lsl r22
 2849 0146 771F      		rol r23
 2850 0148 660F      		lsl r22
 2851 014a 771F      		rol r23
 2852 014c 8489      		ldd r24,Z+20
 2853 014e 9589      		ldd r25,Z+21
 2854 0150 0E94 0000 		call realloc
 2855               	.LVL248:
 2856 0154 D801      		movw r26,r16
 2857 0156 5596      		adiw r26,20+1
 2858 0158 9C93      		st X,r25
 2859 015a 8E93      		st -X,r24
 2860 015c 5497      		sbiw r26,20
 2861               	.L62:
 162:./ros_lib/rosserial_msgs/RequestParam.h ****       for( uint32_t i = 0; i < floats_length; i++){
 2862               		.loc 4 162 0
 2863 015e F801      		movw r30,r16
 2864 0160 4486      		std Z+12,r4
 2865 0162 5586      		std Z+13,r5
 2866 0164 6686      		std Z+14,r6
 2867 0166 7786      		std Z+15,r7
 2868               	.LVL249:
 2869 0168 C401      		movw r24,r8
 2870               	.LBB126:
 163:./ros_lib/rosserial_msgs/RequestParam.h ****       union {
 2871               		.loc 4 163 0
 2872 016a 412C      		mov r4,__zero_reg__
 2873 016c 512C      		mov r5,__zero_reg__
 2874 016e 3201      		movw r6,r4
 2875               	.LVL250:
 2876               	.LBB127:
 175:./ros_lib/rosserial_msgs/RequestParam.h ****       }
 2877               		.loc 4 175 0
 2878 0170 9801      		movw r18,r16
 2879 0172 205F      		subi r18,-16
 2880 0174 3F4F      		sbci r19,-1
 2881               	.LVL251:
 2882               	.L64:
 2883               	.LBE127:
 163:./ros_lib/rosserial_msgs/RequestParam.h ****       union {
 2884               		.loc 4 163 0 discriminator 3
 2885 0176 D801      		movw r26,r16
 2886 0178 1C96      		adiw r26,12
 2887 017a 4D91      		ld r20,X+
 2888 017c 5D91      		ld r21,X+
 2889 017e 6D91      		ld r22,X+
 2890 0180 7C91      		ld r23,X
 2891 0182 1F97      		sbiw r26,12+3
 2892 0184 F501      		movw r30,r10
 2893 0186 3496      		adiw r30,4
 2894 0188 4416      		cp r4,r20
 2895 018a 5506      		cpc r5,r21
 2896 018c 6606      		cpc r6,r22
 2897 018e 7706      		cpc r7,r23
 2898 0190 00F4      		brsh .L63
 2899               	.LVL252:
 2900               	.LBB128:
 172:./ros_lib/rosserial_msgs/RequestParam.h ****       this->st_floats = u_st_floats.real;
 2901               		.loc 4 172 0 discriminator 2
 2902 0192 DC01      		movw r26,r24
 2903 0194 1596      		adiw r26,5
 2904 0196 FC90      		ld r15,X
 2905 0198 1597      		sbiw r26,5
 2906 019a 1696      		adiw r26,6
 2907 019c 4C91      		ld r20,X
 2908 019e 1697      		sbiw r26,6
 2909 01a0 50E0      		ldi r21,0
 2910 01a2 60E0      		ldi r22,0
 2911 01a4 70E0      		ldi r23,0
 2912 01a6 BA01      		movw r22,r20
 2913 01a8 5527      		clr r21
 2914 01aa 4427      		clr r20
 2915 01ac 5F29      		or r21,r15
 2916 01ae 1496      		adiw r26,4
 2917 01b0 FC90      		ld r15,X
 2918 01b2 1497      		sbiw r26,4
 2919 01b4 4F29      		or r20,r15
 2920 01b6 1796      		adiw r26,7
 2921 01b8 FC90      		ld r15,X
 2922 01ba 7F29      		or r23,r15
 173:./ros_lib/rosserial_msgs/RequestParam.h ****       offset += sizeof(this->st_floats);
 2923               		.loc 4 173 0 discriminator 2
 2924 01bc D801      		movw r26,r16
 2925 01be 5096      		adiw r26,16
 2926 01c0 4D93      		st X+,r20
 2927 01c2 5D93      		st X+,r21
 2928 01c4 6D93      		st X+,r22
 2929 01c6 7C93      		st X,r23
 2930 01c8 5397      		sbiw r26,16+3
 2931               	.LVL253:
 2932 01ca 5F01      		movw r10,r30
 175:./ros_lib/rosserial_msgs/RequestParam.h ****       }
 2933               		.loc 4 175 0 discriminator 2
 2934 01cc AC01      		movw r20,r24
 2935 01ce 4819      		sub r20,r8
 2936 01d0 5909      		sbc r21,r9
 2937 01d2 5496      		adiw r26,20
 2938 01d4 0D90      		ld __tmp_reg__,X+
 2939 01d6 BC91      		ld r27,X
 2940 01d8 A02D      		mov r26,__tmp_reg__
 2941 01da A40F      		add r26,r20
 2942 01dc B51F      		adc r27,r21
 2943 01de 44E0      		ldi r20,lo8(4)
 2944 01e0 F901      		movw r30,r18
 2945               	.LVL254:
 2946               		0:
 2947 01e2 0190      		ld r0,Z+
 2948 01e4 0D92      		st X+,r0
 2949 01e6 4A95      		dec r20
 2950 01e8 01F4      		brne 0b
 2951               	.LBE128:
 163:./ros_lib/rosserial_msgs/RequestParam.h ****       union {
 2952               		.loc 4 163 0 discriminator 2
 2953 01ea BFEF      		ldi r27,-1
 2954 01ec 4B1A      		sub r4,r27
 2955 01ee 5B0A      		sbc r5,r27
 2956 01f0 6B0A      		sbc r6,r27
 2957 01f2 7B0A      		sbc r7,r27
 2958               	.LVL255:
 2959 01f4 0496      		adiw r24,4
 2960 01f6 00C0      		rjmp .L64
 2961               	.LVL256:
 2962               	.L63:
 2963               	.LBE126:
 177:./ros_lib/rosserial_msgs/RequestParam.h ****       strings_lengthT |= ((uint32_t) (*(inbuffer + offset + 1))) << (8 * 1); 
 2964               		.loc 4 177 0
 2965 01f8 D601      		movw r26,r12
 2966 01fa AA0D      		add r26,r10
 2967 01fc BB1D      		adc r27,r11
 2968 01fe 8C91      		ld r24,X
 2969               	.LVL257:
 179:./ros_lib/rosserial_msgs/RequestParam.h ****       strings_lengthT |= ((uint32_t) (*(inbuffer + offset + 3))) << (8 * 3); 
 2970               		.loc 4 179 0
 2971 0200 1196      		adiw r26,1
 2972 0202 9C91      		ld r25,X
 2973 0204 1197      		sbiw r26,1
 2974 0206 1296      		adiw r26,2
 2975 0208 8C90      		ld r8,X
 2976 020a 1297      		sbiw r26,2
 2977 020c 912C      		mov r9,__zero_reg__
 2978 020e A12C      		mov r10,__zero_reg__
 2979 0210 B12C      		mov r11,__zero_reg__
 2980 0212 5401      		movw r10,r8
 2981 0214 9924      		clr r9
 2982 0216 8824      		clr r8
 2983 0218 992A      		or r9,r25
 2984 021a 882A      		or r8,r24
 2985               	.LVL258:
 180:./ros_lib/rosserial_msgs/RequestParam.h ****       offset += sizeof(this->strings_length);
 2986               		.loc 4 180 0
 2987 021c 1396      		adiw r26,3
 2988 021e 8C91      		ld r24,X
 2989 0220 B82A      		or r11,r24
 181:./ros_lib/rosserial_msgs/RequestParam.h ****       if(strings_lengthT > strings_length)
 2990               		.loc 4 181 0
 2991 0222 7F01      		movw r14,r30
 2992               	.LVL259:
 182:./ros_lib/rosserial_msgs/RequestParam.h ****         this->strings = (char**)realloc(this->strings, strings_lengthT * sizeof(char*));
 2993               		.loc 4 182 0
 2994 0224 F801      		movw r30,r16
 2995               	.LVL260:
 2996 0226 8689      		ldd r24,Z+22
 2997 0228 9789      		ldd r25,Z+23
 2998 022a A08D      		ldd r26,Z+24
 2999 022c B18D      		ldd r27,Z+25
 3000 022e 8815      		cp r24,r8
 3001 0230 9905      		cpc r25,r9
 3002 0232 AA05      		cpc r26,r10
 3003 0234 BB05      		cpc r27,r11
 3004 0236 00F4      		brsh .L65
 183:./ros_lib/rosserial_msgs/RequestParam.h ****       strings_length = strings_lengthT;
 3005               		.loc 4 183 0
 3006 0238 B401      		movw r22,r8
 3007 023a 660F      		lsl r22
 3008 023c 771F      		rol r23
 3009 023e 848D      		ldd r24,Z+28
 3010 0240 958D      		ldd r25,Z+29
 3011 0242 0E94 0000 		call realloc
 3012               	.LVL261:
 3013 0246 D801      		movw r26,r16
 3014 0248 5D96      		adiw r26,28+1
 3015 024a 9C93      		st X,r25
 3016 024c 8E93      		st -X,r24
 3017 024e 5C97      		sbiw r26,28
 3018               	.L65:
 184:./ros_lib/rosserial_msgs/RequestParam.h ****       for( uint32_t i = 0; i < strings_length; i++){
 3019               		.loc 4 184 0
 3020 0250 F801      		movw r30,r16
 3021 0252 868A      		std Z+22,r8
 3022 0254 978A      		std Z+23,r9
 3023 0256 A08E      		std Z+24,r10
 3024 0258 B18E      		std Z+25,r11
 3025               	.LVL262:
 3026 025a 212C      		mov r2,__zero_reg__
 3027 025c 312C      		mov r3,__zero_reg__
 3028               	.LBB129:
 185:./ros_lib/rosserial_msgs/RequestParam.h ****       uint32_t length_st_strings;
 3029               		.loc 4 185 0
 3030 025e 812C      		mov r8,__zero_reg__
 3031 0260 912C      		mov r9,__zero_reg__
 3032 0262 5401      		movw r10,r8
 3033               	.LVL263:
 3034               	.LBB130:
 195:./ros_lib/rosserial_msgs/RequestParam.h ****       }
 3035               		.loc 4 195 0
 3036 0264 9801      		movw r18,r16
 3037 0266 265E      		subi r18,-26
 3038 0268 3F4F      		sbci r19,-1
 3039 026a 3A87      		std Y+10,r19
 3040 026c 2987      		std Y+9,r18
 3041               	.LVL264:
 3042               	.L69:
 3043               	.LBE130:
 185:./ros_lib/rosserial_msgs/RequestParam.h ****       uint32_t length_st_strings;
 3044               		.loc 4 185 0 discriminator 1
 3045 026e F801      		movw r30,r16
 3046 0270 8689      		ldd r24,Z+22
 3047 0272 9789      		ldd r25,Z+23
 3048 0274 A08D      		ldd r26,Z+24
 3049 0276 B18D      		ldd r27,Z+25
 3050 0278 8816      		cp r8,r24
 3051 027a 9906      		cpc r9,r25
 3052 027c AA06      		cpc r10,r26
 3053 027e BB06      		cpc r11,r27
 3054 0280 00F0      		brlo .+2
 3055 0282 00C0      		rjmp .L66
 3056               	.LBB132:
 187:./ros_lib/rosserial_msgs/RequestParam.h ****       offset += 4;
 3057               		.loc 4 187 0
 3058 0284 B601      		movw r22,r12
 3059 0286 6E0D      		add r22,r14
 3060 0288 7F1D      		adc r23,r15
 3061 028a CE01      		movw r24,r28
 3062 028c 0196      		adiw r24,1
 3063 028e 0E94 0000 		call _ZN3ros3Msg8arrToVarImPhEEvRT_T0_
 3064               	.LVL265:
 188:./ros_lib/rosserial_msgs/RequestParam.h ****       for(unsigned int k= offset; k< offset+length_st_strings; ++k){
 3065               		.loc 4 188 0
 3066 0292 9701      		movw r18,r14
 3067 0294 2C5F      		subi r18,-4
 3068 0296 3F4F      		sbci r19,-1
 3069 0298 388B      		std Y+16,r19
 3070 029a 2F87      		std Y+15,r18
 3071               	.LVL266:
 3072               	.LBB131:
 189:./ros_lib/rosserial_msgs/RequestParam.h ****           inbuffer[k-1]=inbuffer[k];
 3073               		.loc 4 189 0
 3074 029c 4981      		ldd r20,Y+1
 3075 029e 5A81      		ldd r21,Y+2
 3076 02a0 6B81      		ldd r22,Y+3
 3077 02a2 7C81      		ldd r23,Y+4
 3078 02a4 C901      		movw r24,r18
 3079 02a6 330F      		lsl r19
 3080 02a8 AA0B      		sbc r26,r26
 3081 02aa BB0B      		sbc r27,r27
 3082 02ac 2C01      		movw r4,r24
 3083 02ae 3D01      		movw r6,r26
 3084 02b0 440E      		add r4,r20
 3085 02b2 551E      		adc r5,r21
 3086 02b4 661E      		adc r6,r22
 3087 02b6 771E      		adc r7,r23
 3088 02b8 4B86      		std Y+11,r4
 3089 02ba 5C86      		std Y+12,r5
 3090 02bc 6D86      		std Y+13,r6
 3091 02be 7E86      		std Y+14,r7
 3092 02c0 23E0      		ldi r18,3
 3093 02c2 E20E      		add r14,r18
 3094 02c4 F11C      		adc r15,__zero_reg__
 3095               	.LVL267:
 3096 02c6 F601      		movw r30,r12
 3097 02c8 EE0D      		add r30,r14
 3098 02ca FF1D      		adc r31,r15
 3099 02cc 2F85      		ldd r18,Y+15
 3100 02ce 3889      		ldd r19,Y+16
 3101               	.LVL268:
 3102               	.L68:
 189:./ros_lib/rosserial_msgs/RequestParam.h ****           inbuffer[k-1]=inbuffer[k];
 3103               		.loc 4 189 0 is_stmt 0 discriminator 3
 3104 02d0 C901      		movw r24,r18
 3105 02d2 A0E0      		ldi r26,0
 3106 02d4 B0E0      		ldi r27,0
 3107 02d6 4B84      		ldd r4,Y+11
 3108 02d8 5C84      		ldd r5,Y+12
 3109 02da 6D84      		ldd r6,Y+13
 3110 02dc 7E84      		ldd r7,Y+14
 3111 02de 8415      		cp r24,r4
 3112 02e0 9505      		cpc r25,r5
 3113 02e2 A605      		cpc r26,r6
 3114 02e4 B705      		cpc r27,r7
 3115 02e6 00F4      		brsh .L67
 190:./ros_lib/rosserial_msgs/RequestParam.h ****       }
 3116               		.loc 4 190 0 is_stmt 1 discriminator 2
 3117 02e8 A181      		ldd r26,Z+1
 3118 02ea A193      		st Z+,r26
 189:./ros_lib/rosserial_msgs/RequestParam.h ****           inbuffer[k-1]=inbuffer[k];
 3119               		.loc 4 189 0 discriminator 2
 3120 02ec 2F5F      		subi r18,-1
 3121 02ee 3F4F      		sbci r19,-1
 3122               	.LVL269:
 3123 02f0 00C0      		rjmp .L68
 3124               	.L67:
 3125               	.LBE131:
 192:./ros_lib/rosserial_msgs/RequestParam.h ****       this->st_strings = (char *)(inbuffer + offset-1);
 3126               		.loc 4 192 0 discriminator 2
 3127 02f2 6F84      		ldd r6,Y+15
 3128 02f4 7888      		ldd r7,Y+16
 3129 02f6 460D      		add r20,r6
 3130 02f8 571D      		adc r21,r7
 3131 02fa F601      		movw r30,r12
 3132 02fc E40F      		add r30,r20
 3133 02fe F51F      		adc r31,r21
 3134 0300 3197      		sbiw r30,1
 3135 0302 1082      		st Z,__zero_reg__
 193:./ros_lib/rosserial_msgs/RequestParam.h ****       offset += length_st_strings;
 3136               		.loc 4 193 0 discriminator 2
 3137 0304 C301      		movw r24,r6
 3138 0306 0197      		sbiw r24,1
 3139 0308 8C0D      		add r24,r12
 3140 030a 9D1D      		adc r25,r13
 3141 030c D801      		movw r26,r16
 3142 030e 5B96      		adiw r26,26+1
 3143 0310 9C93      		st X,r25
 3144 0312 8E93      		st -X,r24
 3145 0314 5A97      		sbiw r26,26
 194:./ros_lib/rosserial_msgs/RequestParam.h ****         memcpy( &(this->strings[i]), &(this->st_strings), sizeof(char*));
 3146               		.loc 4 194 0 discriminator 2
 3147 0316 7A01      		movw r14,r20
 3148               	.LVL270:
 195:./ros_lib/rosserial_msgs/RequestParam.h ****       }
 3149               		.loc 4 195 0 discriminator 2
 3150 0318 5C96      		adiw r26,28
 3151 031a ED91      		ld r30,X+
 3152 031c FC91      		ld r31,X
 3153 031e 5D97      		sbiw r26,28+1
 3154 0320 E20D      		add r30,r2
 3155 0322 F31D      		adc r31,r3
 3156 0324 A985      		ldd r26,Y+9
 3157 0326 BA85      		ldd r27,Y+10
 3158 0328 8D91      		ld r24,X+
 3159 032a 9C91      		ld r25,X
 3160 032c 9183      		std Z+1,r25
 3161 032e 8083      		st Z,r24
 3162               	.LBE132:
 185:./ros_lib/rosserial_msgs/RequestParam.h ****       uint32_t length_st_strings;
 3163               		.loc 4 185 0 discriminator 2
 3164 0330 BFEF      		ldi r27,-1
 3165 0332 8B1A      		sub r8,r27
 3166 0334 9B0A      		sbc r9,r27
 3167 0336 AB0A      		sbc r10,r27
 3168 0338 BB0A      		sbc r11,r27
 3169               	.LVL271:
 3170 033a E2E0      		ldi r30,2
 3171 033c 2E0E      		add r2,r30
 3172 033e 311C      		adc r3,__zero_reg__
 3173 0340 00C0      		rjmp .L69
 3174               	.LVL272:
 3175               	.L66:
 3176               	.LBE129:
 198:./ros_lib/rosserial_msgs/RequestParam.h **** 
 3177               		.loc 4 198 0
 3178 0342 C701      		movw r24,r14
 3179               	/* epilogue start */
 3180 0344 6096      		adiw r28,16
 3181 0346 0FB6      		in __tmp_reg__,__SREG__
 3182 0348 F894      		cli
 3183 034a DEBF      		out __SP_H__,r29
 3184 034c 0FBE      		out __SREG__,__tmp_reg__
 3185 034e CDBF      		out __SP_L__,r28
 3186 0350 DF91      		pop r29
 3187 0352 CF91      		pop r28
 3188 0354 1F91      		pop r17
 3189 0356 0F91      		pop r16
 3190               	.LVL273:
 3191 0358 FF90      		pop r15
 3192 035a EF90      		pop r14
