
2_stepMOT.elf:     file format elf32-avr

Sections:
Idx Name          Size      VMA       LMA       File off  Algn
  0 .data         00000012  00800200  00000fc0  00001054  2**0
                  CONTENTS, ALLOC, LOAD, DATA
  1 .text         00000fc0  00000000  00000000  00000094  2**1
                  CONTENTS, ALLOC, LOAD, READONLY, CODE
  2 .bss          0000006d  00800212  00800212  00001066  2**0
                  ALLOC
  3 .comment      00000030  00000000  00000000  00001066  2**0
                  CONTENTS, READONLY
  4 .note.gnu.avr.deviceinfo 00000040  00000000  00000000  00001098  2**2
                  CONTENTS, READONLY
  5 .debug_aranges 00000158  00000000  00000000  000010d8  2**0
                  CONTENTS, READONLY, DEBUGGING
  6 .debug_info   00001815  00000000  00000000  00001230  2**0
                  CONTENTS, READONLY, DEBUGGING
  7 .debug_abbrev 000010e4  00000000  00000000  00002a45  2**0
                  CONTENTS, READONLY, DEBUGGING
  8 .debug_line   00000c87  00000000  00000000  00003b29  2**0
                  CONTENTS, READONLY, DEBUGGING
  9 .debug_frame  00000454  00000000  00000000  000047b0  2**2
                  CONTENTS, READONLY, DEBUGGING
 10 .debug_str    00000850  00000000  00000000  00004c04  2**0
                  CONTENTS, READONLY, DEBUGGING
 11 .debug_loc    00000c52  00000000  00000000  00005454  2**0
                  CONTENTS, READONLY, DEBUGGING
 12 .debug_ranges 00000108  00000000  00000000  000060a6  2**0
                  CONTENTS, READONLY, DEBUGGING

Disassembly of section .text:

00000000 <__vectors>:
   0:	71 c0       	rjmp	.+226    	; 0xe4 <__ctors_end>
   2:	00 00       	nop
   4:	8e c0       	rjmp	.+284    	; 0x122 <__bad_interrupt>
   6:	00 00       	nop
   8:	8c c0       	rjmp	.+280    	; 0x122 <__bad_interrupt>
   a:	00 00       	nop
   c:	8a c0       	rjmp	.+276    	; 0x122 <__bad_interrupt>
   e:	00 00       	nop
  10:	88 c0       	rjmp	.+272    	; 0x122 <__bad_interrupt>
  12:	00 00       	nop
  14:	86 c0       	rjmp	.+268    	; 0x122 <__bad_interrupt>
  16:	00 00       	nop
  18:	84 c0       	rjmp	.+264    	; 0x122 <__bad_interrupt>
  1a:	00 00       	nop
  1c:	82 c0       	rjmp	.+260    	; 0x122 <__bad_interrupt>
  1e:	00 00       	nop
  20:	80 c0       	rjmp	.+256    	; 0x122 <__bad_interrupt>
  22:	00 00       	nop
  24:	7e c0       	rjmp	.+252    	; 0x122 <__bad_interrupt>
  26:	00 00       	nop
  28:	7c c0       	rjmp	.+248    	; 0x122 <__bad_interrupt>
  2a:	00 00       	nop
  2c:	7a c0       	rjmp	.+244    	; 0x122 <__bad_interrupt>
  2e:	00 00       	nop
  30:	78 c0       	rjmp	.+240    	; 0x122 <__bad_interrupt>
  32:	00 00       	nop
  34:	76 c0       	rjmp	.+236    	; 0x122 <__bad_interrupt>
  36:	00 00       	nop
  38:	74 c0       	rjmp	.+232    	; 0x122 <__bad_interrupt>
  3a:	00 00       	nop
  3c:	72 c0       	rjmp	.+228    	; 0x122 <__bad_interrupt>
  3e:	00 00       	nop
  40:	70 c0       	rjmp	.+224    	; 0x122 <__bad_interrupt>
  42:	00 00       	nop
  44:	6e c0       	rjmp	.+220    	; 0x122 <__bad_interrupt>
  46:	00 00       	nop
  48:	6c c0       	rjmp	.+216    	; 0x122 <__bad_interrupt>
  4a:	00 00       	nop
  4c:	6a c0       	rjmp	.+212    	; 0x122 <__bad_interrupt>
  4e:	00 00       	nop
  50:	49 c3       	rjmp	.+1682   	; 0x6e4 <__vector_20>
  52:	00 00       	nop
  54:	66 c0       	rjmp	.+204    	; 0x122 <__bad_interrupt>
  56:	00 00       	nop
  58:	64 c0       	rjmp	.+200    	; 0x122 <__bad_interrupt>
  5a:	00 00       	nop
  5c:	62 c0       	rjmp	.+196    	; 0x122 <__bad_interrupt>
  5e:	00 00       	nop
  60:	60 c0       	rjmp	.+192    	; 0x122 <__bad_interrupt>
  62:	00 00       	nop
  64:	87 c4       	rjmp	.+2318   	; 0x974 <__vector_25>
  66:	00 00       	nop
  68:	5c c0       	rjmp	.+184    	; 0x122 <__bad_interrupt>
  6a:	00 00       	nop
  6c:	5a c0       	rjmp	.+180    	; 0x122 <__bad_interrupt>
  6e:	00 00       	nop
  70:	58 c0       	rjmp	.+176    	; 0x122 <__bad_interrupt>
  72:	00 00       	nop
  74:	63 c0       	rjmp	.+198    	; 0x13c <__vector_29>
  76:	00 00       	nop
  78:	54 c0       	rjmp	.+168    	; 0x122 <__bad_interrupt>
  7a:	00 00       	nop
  7c:	52 c0       	rjmp	.+164    	; 0x122 <__bad_interrupt>
  7e:	00 00       	nop
  80:	50 c0       	rjmp	.+160    	; 0x122 <__bad_interrupt>
  82:	00 00       	nop
  84:	4e c0       	rjmp	.+156    	; 0x122 <__bad_interrupt>
  86:	00 00       	nop
  88:	4c c0       	rjmp	.+152    	; 0x122 <__bad_interrupt>
  8a:	00 00       	nop
  8c:	4a c0       	rjmp	.+148    	; 0x122 <__bad_interrupt>
  8e:	00 00       	nop
  90:	48 c0       	rjmp	.+144    	; 0x122 <__bad_interrupt>
  92:	00 00       	nop
  94:	46 c0       	rjmp	.+140    	; 0x122 <__bad_interrupt>
  96:	00 00       	nop
  98:	44 c0       	rjmp	.+136    	; 0x122 <__bad_interrupt>
  9a:	00 00       	nop
  9c:	42 c0       	rjmp	.+132    	; 0x122 <__bad_interrupt>
  9e:	00 00       	nop
  a0:	40 c0       	rjmp	.+128    	; 0x122 <__bad_interrupt>
  a2:	00 00       	nop
  a4:	3e c0       	rjmp	.+124    	; 0x122 <__bad_interrupt>
  a6:	00 00       	nop
  a8:	3c c0       	rjmp	.+120    	; 0x122 <__bad_interrupt>
  aa:	00 00       	nop
  ac:	3a c0       	rjmp	.+116    	; 0x122 <__bad_interrupt>
  ae:	00 00       	nop
  b0:	38 c0       	rjmp	.+112    	; 0x122 <__bad_interrupt>
  b2:	00 00       	nop
  b4:	36 c0       	rjmp	.+108    	; 0x122 <__bad_interrupt>
  b6:	00 00       	nop
  b8:	34 c0       	rjmp	.+104    	; 0x122 <__bad_interrupt>
  ba:	00 00       	nop
  bc:	32 c0       	rjmp	.+100    	; 0x122 <__bad_interrupt>
  be:	00 00       	nop
  c0:	30 c0       	rjmp	.+96     	; 0x122 <__bad_interrupt>
  c2:	00 00       	nop
  c4:	2e c0       	rjmp	.+92     	; 0x122 <__bad_interrupt>
  c6:	00 00       	nop
  c8:	2c c0       	rjmp	.+88     	; 0x122 <__bad_interrupt>
  ca:	00 00       	nop
  cc:	2a c0       	rjmp	.+84     	; 0x122 <__bad_interrupt>
  ce:	00 00       	nop
  d0:	28 c0       	rjmp	.+80     	; 0x122 <__bad_interrupt>
  d2:	00 00       	nop
  d4:	26 c0       	rjmp	.+76     	; 0x122 <__bad_interrupt>
  d6:	00 00       	nop
  d8:	24 c0       	rjmp	.+72     	; 0x122 <__bad_interrupt>
  da:	00 00       	nop
  dc:	22 c0       	rjmp	.+68     	; 0x122 <__bad_interrupt>
  de:	00 00       	nop
  e0:	20 c0       	rjmp	.+64     	; 0x122 <__bad_interrupt>
	...

000000e4 <__ctors_end>:
  e4:	11 24       	eor	r1, r1
  e6:	1f be       	out	0x3f, r1	; 63
  e8:	cf ef       	ldi	r28, 0xFF	; 255
  ea:	d1 e2       	ldi	r29, 0x21	; 33
  ec:	de bf       	out	0x3e, r29	; 62
  ee:	cd bf       	out	0x3d, r28	; 61
  f0:	00 e0       	ldi	r16, 0x00	; 0
  f2:	0c bf       	out	0x3c, r16	; 60

000000f4 <__do_copy_data>:
  f4:	12 e0       	ldi	r17, 0x02	; 2
  f6:	a0 e0       	ldi	r26, 0x00	; 0
  f8:	b2 e0       	ldi	r27, 0x02	; 2
  fa:	e0 ec       	ldi	r30, 0xC0	; 192
  fc:	ff e0       	ldi	r31, 0x0F	; 15
  fe:	00 e0       	ldi	r16, 0x00	; 0
 100:	0b bf       	out	0x3b, r16	; 59
 102:	02 c0       	rjmp	.+4      	; 0x108 <__do_copy_data+0x14>
 104:	07 90       	elpm	r0, Z+
 106:	0d 92       	st	X+, r0
 108:	a2 31       	cpi	r26, 0x12	; 18
 10a:	b1 07       	cpc	r27, r17
 10c:	d9 f7       	brne	.-10     	; 0x104 <__do_copy_data+0x10>

0000010e <__do_clear_bss>:
 10e:	22 e0       	ldi	r18, 0x02	; 2
 110:	a2 e1       	ldi	r26, 0x12	; 18
 112:	b2 e0       	ldi	r27, 0x02	; 2
 114:	01 c0       	rjmp	.+2      	; 0x118 <.do_clear_bss_start>

00000116 <.do_clear_bss_loop>:
 116:	1d 92       	st	X+, r1

00000118 <.do_clear_bss_start>:
 118:	af 37       	cpi	r26, 0x7F	; 127
 11a:	b2 07       	cpc	r27, r18
 11c:	e1 f7       	brne	.-8      	; 0x116 <.do_clear_bss_loop>
 11e:	b6 d1       	rcall	.+876    	; 0x48c <main>
 120:	4d c7       	rjmp	.+3738   	; 0xfbc <_exit>

00000122 <__bad_interrupt>:
 122:	6e cf       	rjmp	.-292    	; 0x0 <__vectors>

00000124 <AdcInit>:
	
	#endif
	
	#ifdef AVR_READ
	
	ADCSRA=(1<<ADEN)|(1<<ADSC)|(1<<ADIE)|(1<<ADPS2)|(1<<ADPS0);
 124:	8d ec       	ldi	r24, 0xCD	; 205
 126:	80 93 7a 00 	sts	0x007A, r24	; 0x80007a <__TEXT_REGION_LENGTH__+0x7c007a>
	ADMUX=(1<<REFS0)|adc_channel;
 12a:	80 91 00 02 	lds	r24, 0x0200	; 0x800200 <__DATA_REGION_ORIGIN__>
 12e:	80 64       	ori	r24, 0x40	; 64
 130:	80 93 7c 00 	sts	0x007C, r24	; 0x80007c <__TEXT_REGION_LENGTH__+0x7c007c>
 134:	08 95       	ret

00000136 <AdcGetPos>:
	
	for(uint8_t i=0; i<4; i++) adc_res[i]=ExpAnalogRead(EXP_DEF_ADDR, i);

	#endif
	return adc_res;
}
 136:	82 e1       	ldi	r24, 0x12	; 18
 138:	92 e0       	ldi	r25, 0x02	; 2
 13a:	08 95       	ret

0000013c <__vector_29>:

ISR(ADC_vect){
 13c:	1f 92       	push	r1
 13e:	0f 92       	push	r0
 140:	0f b6       	in	r0, 0x3f	; 63
 142:	0f 92       	push	r0
 144:	11 24       	eor	r1, r1
 146:	0b b6       	in	r0, 0x3b	; 59
 148:	0f 92       	push	r0
 14a:	4f 92       	push	r4
 14c:	5f 92       	push	r5
 14e:	6f 92       	push	r6
 150:	7f 92       	push	r7
 152:	8f 92       	push	r8
 154:	9f 92       	push	r9
 156:	af 92       	push	r10
 158:	bf 92       	push	r11
 15a:	cf 92       	push	r12
 15c:	df 92       	push	r13
 15e:	ef 92       	push	r14
 160:	ff 92       	push	r15
 162:	0f 93       	push	r16
 164:	1f 93       	push	r17
 166:	2f 93       	push	r18
 168:	3f 93       	push	r19
 16a:	4f 93       	push	r20
 16c:	5f 93       	push	r21
 16e:	6f 93       	push	r22
 170:	7f 93       	push	r23
 172:	8f 93       	push	r24
 174:	9f 93       	push	r25
 176:	af 93       	push	r26
 178:	bf 93       	push	r27
 17a:	ef 93       	push	r30
 17c:	ff 93       	push	r31
 17e:	cf 93       	push	r28
 180:	df 93       	push	r29
 182:	cd b7       	in	r28, 0x3d	; 61
 184:	de b7       	in	r29, 0x3e	; 62
 186:	2a 97       	sbiw	r28, 0x0a	; 10
 188:	de bf       	out	0x3e, r29	; 62
 18a:	cd bf       	out	0x3d, r28	; 61
	switch(adc_channel){
 18c:	80 91 00 02 	lds	r24, 0x0200	; 0x800200 <__DATA_REGION_ORIGIN__>
 190:	82 30       	cpi	r24, 0x02	; 2
 192:	01 f1       	breq	.+64     	; 0x1d4 <__vector_29+0x98>
 194:	18 f4       	brcc	.+6      	; 0x19c <__vector_29+0x60>
 196:	81 30       	cpi	r24, 0x01	; 1
 198:	39 f0       	breq	.+14     	; 0x1a8 <__vector_29+0x6c>
 19a:	5d c0       	rjmp	.+186    	; 0x256 <__vector_29+0x11a>
 19c:	83 30       	cpi	r24, 0x03	; 3
 19e:	81 f1       	breq	.+96     	; 0x200 <__vector_29+0xc4>
 1a0:	84 30       	cpi	r24, 0x04	; 4
 1a2:	09 f4       	brne	.+2      	; 0x1a6 <__vector_29+0x6a>
 1a4:	43 c0       	rjmp	.+134    	; 0x22c <__vector_29+0xf0>
 1a6:	57 c0       	rjmp	.+174    	; 0x256 <__vector_29+0x11a>
		case ST_MOT1_POT:{
			pot_res[measure_number]=ADCL|(ADCH<<8);
 1a8:	80 91 78 00 	lds	r24, 0x0078	; 0x800078 <__TEXT_REGION_LENGTH__+0x7c0078>
 1ac:	20 91 79 00 	lds	r18, 0x0079	; 0x800079 <__TEXT_REGION_LENGTH__+0x7c0079>
 1b0:	e0 91 1a 02 	lds	r30, 0x021A	; 0x80021a <measure_number>
 1b4:	f0 e0       	ldi	r31, 0x00	; 0
 1b6:	ee 0f       	add	r30, r30
 1b8:	ff 1f       	adc	r31, r31
 1ba:	e5 5c       	subi	r30, 0xC5	; 197
 1bc:	fd 4f       	sbci	r31, 0xFD	; 253
 1be:	90 e0       	ldi	r25, 0x00	; 0
 1c0:	92 2b       	or	r25, r18
 1c2:	91 83       	std	Z+1, r25	; 0x01
 1c4:	80 83       	st	Z, r24
			adc_channel=ST_MOT2_POT;
 1c6:	82 e0       	ldi	r24, 0x02	; 2
 1c8:	80 93 00 02 	sts	0x0200, r24	; 0x800200 <__DATA_REGION_ORIGIN__>
			ADMUX=(1<<REFS0)|adc_channel;
 1cc:	82 e4       	ldi	r24, 0x42	; 66
 1ce:	80 93 7c 00 	sts	0x007C, r24	; 0x80007c <__TEXT_REGION_LENGTH__+0x7c007c>
			break;
 1d2:	41 c0       	rjmp	.+130    	; 0x256 <__vector_29+0x11a>
		}
		case ST_MOT2_POT:{
			pot_res[measure_number]=ADCL|(ADCH<<8);
 1d4:	80 91 78 00 	lds	r24, 0x0078	; 0x800078 <__TEXT_REGION_LENGTH__+0x7c0078>
 1d8:	20 91 79 00 	lds	r18, 0x0079	; 0x800079 <__TEXT_REGION_LENGTH__+0x7c0079>
 1dc:	e0 91 1a 02 	lds	r30, 0x021A	; 0x80021a <measure_number>
 1e0:	f0 e0       	ldi	r31, 0x00	; 0
 1e2:	ee 0f       	add	r30, r30
 1e4:	ff 1f       	adc	r31, r31
 1e6:	e5 5c       	subi	r30, 0xC5	; 197
 1e8:	fd 4f       	sbci	r31, 0xFD	; 253
 1ea:	90 e0       	ldi	r25, 0x00	; 0
 1ec:	92 2b       	or	r25, r18
 1ee:	91 83       	std	Z+1, r25	; 0x01
 1f0:	80 83       	st	Z, r24
			adc_channel=ST_MOT3_POT;
 1f2:	83 e0       	ldi	r24, 0x03	; 3
 1f4:	80 93 00 02 	sts	0x0200, r24	; 0x800200 <__DATA_REGION_ORIGIN__>
			ADMUX=(1<<REFS0)|adc_channel;
 1f8:	83 e4       	ldi	r24, 0x43	; 67
 1fa:	80 93 7c 00 	sts	0x007C, r24	; 0x80007c <__TEXT_REGION_LENGTH__+0x7c007c>
			break;
 1fe:	2b c0       	rjmp	.+86     	; 0x256 <__vector_29+0x11a>
		}
		case ST_MOT3_POT:{
			pot_res[measure_number]=ADCL|(ADCH<<8);
 200:	80 91 78 00 	lds	r24, 0x0078	; 0x800078 <__TEXT_REGION_LENGTH__+0x7c0078>
 204:	20 91 79 00 	lds	r18, 0x0079	; 0x800079 <__TEXT_REGION_LENGTH__+0x7c0079>
 208:	e0 91 1a 02 	lds	r30, 0x021A	; 0x80021a <measure_number>
 20c:	f0 e0       	ldi	r31, 0x00	; 0
 20e:	ee 0f       	add	r30, r30
 210:	ff 1f       	adc	r31, r31
 212:	e5 5c       	subi	r30, 0xC5	; 197
 214:	fd 4f       	sbci	r31, 0xFD	; 253
 216:	90 e0       	ldi	r25, 0x00	; 0
 218:	92 2b       	or	r25, r18
 21a:	91 83       	std	Z+1, r25	; 0x01
 21c:	80 83       	st	Z, r24
			adc_channel=ST_MOT4_POT;
 21e:	84 e0       	ldi	r24, 0x04	; 4
 220:	80 93 00 02 	sts	0x0200, r24	; 0x800200 <__DATA_REGION_ORIGIN__>
			ADMUX=(1<<REFS0)|adc_channel;
 224:	84 e4       	ldi	r24, 0x44	; 68
 226:	80 93 7c 00 	sts	0x007C, r24	; 0x80007c <__TEXT_REGION_LENGTH__+0x7c007c>
			break;
 22a:	15 c0       	rjmp	.+42     	; 0x256 <__vector_29+0x11a>
		}
		case ST_MOT4_POT:{
			pot_res[measure_number]=ADCL|(ADCH<<8);
 22c:	80 91 78 00 	lds	r24, 0x0078	; 0x800078 <__TEXT_REGION_LENGTH__+0x7c0078>
 230:	20 91 79 00 	lds	r18, 0x0079	; 0x800079 <__TEXT_REGION_LENGTH__+0x7c0079>
 234:	e0 91 1a 02 	lds	r30, 0x021A	; 0x80021a <measure_number>
 238:	f0 e0       	ldi	r31, 0x00	; 0
 23a:	ee 0f       	add	r30, r30
 23c:	ff 1f       	adc	r31, r31
 23e:	e5 5c       	subi	r30, 0xC5	; 197
 240:	fd 4f       	sbci	r31, 0xFD	; 253
 242:	90 e0       	ldi	r25, 0x00	; 0
 244:	92 2b       	or	r25, r18
 246:	91 83       	std	Z+1, r25	; 0x01
 248:	80 83       	st	Z, r24
			adc_channel=ST_MOT1_POT;
 24a:	81 e0       	ldi	r24, 0x01	; 1
 24c:	80 93 00 02 	sts	0x0200, r24	; 0x800200 <__DATA_REGION_ORIGIN__>
			ADMUX=(1<<REFS0)|adc_channel;
 250:	81 e4       	ldi	r24, 0x41	; 65
 252:	80 93 7c 00 	sts	0x007C, r24	; 0x80007c <__TEXT_REGION_LENGTH__+0x7c007c>
			break;
		}
	}
	if(measure_number<11) measure_number++;
 256:	80 91 1a 02 	lds	r24, 0x021A	; 0x80021a <measure_number>
 25a:	8b 30       	cpi	r24, 0x0B	; 11
 25c:	20 f4       	brcc	.+8      	; 0x266 <__vector_29+0x12a>
 25e:	8f 5f       	subi	r24, 0xFF	; 255
 260:	80 93 1a 02 	sts	0x021A, r24	; 0x80021a <measure_number>
 264:	d5 c0       	rjmp	.+426    	; 0x410 <__LOCK_REGION_LENGTH__+0x10>
	else{
		measure_number=0;
 266:	10 92 1a 02 	sts	0x021A, r1	; 0x80021a <measure_number>
		adc_res[3]=FindMiddleValue(pot_res[3],pot_res[7],pot_res[11]);
		
		#endif
		#ifdef LOW_PASS_FILTER
		
		pot_av[0]=(pot_res[0]+pot_res[4]+pot_res[8])/3;
 26a:	0b e2       	ldi	r16, 0x2B	; 43
 26c:	12 e0       	ldi	r17, 0x02	; 2
 26e:	ab e3       	ldi	r26, 0x3B	; 59
 270:	b2 e0       	ldi	r27, 0x02	; 2
 272:	2d 91       	ld	r18, X+
 274:	3c 91       	ld	r19, X
 276:	80 91 43 02 	lds	r24, 0x0243	; 0x800243 <pot_res+0x8>
 27a:	90 91 44 02 	lds	r25, 0x0244	; 0x800244 <pot_res+0x9>
 27e:	28 0f       	add	r18, r24
 280:	39 1f       	adc	r19, r25
 282:	80 91 4b 02 	lds	r24, 0x024B	; 0x80024b <pot_res+0x10>
 286:	90 91 4c 02 	lds	r25, 0x024C	; 0x80024c <pot_res+0x11>
 28a:	28 0f       	add	r18, r24
 28c:	39 1f       	adc	r19, r25
 28e:	ab ea       	ldi	r26, 0xAB	; 171
 290:	ba ea       	ldi	r27, 0xAA	; 170
 292:	85 d6       	rcall	.+3338   	; 0xf9e <__umulhisi3>
 294:	96 95       	lsr	r25
 296:	87 95       	ror	r24
 298:	bc 01       	movw	r22, r24
 29a:	80 e0       	ldi	r24, 0x00	; 0
 29c:	90 e0       	ldi	r25, 0x00	; 0
 29e:	66 d5       	rcall	.+2764   	; 0xd6c <__floatunsisf>
 2a0:	f8 01       	movw	r30, r16
 2a2:	60 83       	st	Z, r22
 2a4:	71 83       	std	Z+1, r23	; 0x01
 2a6:	82 83       	std	Z+2, r24	; 0x02
 2a8:	93 83       	std	Z+3, r25	; 0x03
		pot_av[1]=(pot_res[1]+pot_res[5]+pot_res[9])/3;
 2aa:	20 91 3d 02 	lds	r18, 0x023D	; 0x80023d <pot_res+0x2>
 2ae:	30 91 3e 02 	lds	r19, 0x023E	; 0x80023e <pot_res+0x3>
 2b2:	80 91 45 02 	lds	r24, 0x0245	; 0x800245 <pot_res+0xa>
 2b6:	90 91 46 02 	lds	r25, 0x0246	; 0x800246 <pot_res+0xb>
 2ba:	28 0f       	add	r18, r24
 2bc:	39 1f       	adc	r19, r25
 2be:	80 91 4d 02 	lds	r24, 0x024D	; 0x80024d <pot_res+0x12>
 2c2:	90 91 4e 02 	lds	r25, 0x024E	; 0x80024e <pot_res+0x13>
 2c6:	28 0f       	add	r18, r24
 2c8:	39 1f       	adc	r19, r25
 2ca:	ab ea       	ldi	r26, 0xAB	; 171
 2cc:	ba ea       	ldi	r27, 0xAA	; 170
 2ce:	67 d6       	rcall	.+3278   	; 0xf9e <__umulhisi3>
 2d0:	96 95       	lsr	r25
 2d2:	87 95       	ror	r24
 2d4:	bc 01       	movw	r22, r24
 2d6:	80 e0       	ldi	r24, 0x00	; 0
 2d8:	90 e0       	ldi	r25, 0x00	; 0
 2da:	48 d5       	rcall	.+2704   	; 0xd6c <__floatunsisf>
 2dc:	d8 01       	movw	r26, r16
 2de:	14 96       	adiw	r26, 0x04	; 4
 2e0:	6d 93       	st	X+, r22
 2e2:	7d 93       	st	X+, r23
 2e4:	8d 93       	st	X+, r24
 2e6:	9c 93       	st	X, r25
 2e8:	17 97       	sbiw	r26, 0x07	; 7
		pot_av[2]=(pot_res[2]+pot_res[6]+pot_res[10])/3;
 2ea:	20 91 3f 02 	lds	r18, 0x023F	; 0x80023f <pot_res+0x4>
 2ee:	30 91 40 02 	lds	r19, 0x0240	; 0x800240 <pot_res+0x5>
 2f2:	80 91 47 02 	lds	r24, 0x0247	; 0x800247 <pot_res+0xc>
 2f6:	90 91 48 02 	lds	r25, 0x0248	; 0x800248 <pot_res+0xd>
 2fa:	28 0f       	add	r18, r24
 2fc:	39 1f       	adc	r19, r25
 2fe:	80 91 4f 02 	lds	r24, 0x024F	; 0x80024f <pot_res+0x14>
 302:	90 91 50 02 	lds	r25, 0x0250	; 0x800250 <pot_res+0x15>
 306:	28 0f       	add	r18, r24
 308:	39 1f       	adc	r19, r25
 30a:	ab ea       	ldi	r26, 0xAB	; 171
 30c:	ba ea       	ldi	r27, 0xAA	; 170
 30e:	47 d6       	rcall	.+3214   	; 0xf9e <__umulhisi3>
 310:	96 95       	lsr	r25
 312:	87 95       	ror	r24
 314:	bc 01       	movw	r22, r24
 316:	80 e0       	ldi	r24, 0x00	; 0
 318:	90 e0       	ldi	r25, 0x00	; 0
 31a:	28 d5       	rcall	.+2640   	; 0xd6c <__floatunsisf>
 31c:	f8 01       	movw	r30, r16
 31e:	60 87       	std	Z+8, r22	; 0x08
 320:	71 87       	std	Z+9, r23	; 0x09
 322:	82 87       	std	Z+10, r24	; 0x0a
 324:	93 87       	std	Z+11, r25	; 0x0b
		pot_av[3]=(pot_res[3]+pot_res[7]+pot_res[11])/3;
 326:	20 91 41 02 	lds	r18, 0x0241	; 0x800241 <pot_res+0x6>
 32a:	30 91 42 02 	lds	r19, 0x0242	; 0x800242 <pot_res+0x7>
 32e:	80 91 49 02 	lds	r24, 0x0249	; 0x800249 <pot_res+0xe>
 332:	90 91 4a 02 	lds	r25, 0x024A	; 0x80024a <pot_res+0xf>
 336:	28 0f       	add	r18, r24
 338:	39 1f       	adc	r19, r25
 33a:	80 91 51 02 	lds	r24, 0x0251	; 0x800251 <pot_res+0x16>
 33e:	90 91 52 02 	lds	r25, 0x0252	; 0x800252 <pot_res+0x17>
 342:	28 0f       	add	r18, r24
 344:	39 1f       	adc	r19, r25
 346:	ab ea       	ldi	r26, 0xAB	; 171
 348:	ba ea       	ldi	r27, 0xAA	; 170
 34a:	29 d6       	rcall	.+3154   	; 0xf9e <__umulhisi3>
 34c:	96 95       	lsr	r25
 34e:	87 95       	ror	r24
 350:	bc 01       	movw	r22, r24
 352:	80 e0       	ldi	r24, 0x00	; 0
 354:	90 e0       	ldi	r25, 0x00	; 0
 356:	0a d5       	rcall	.+2580   	; 0xd6c <__floatunsisf>
 358:	d8 01       	movw	r26, r16
 35a:	1c 96       	adiw	r26, 0x0c	; 12
 35c:	6d 93       	st	X+, r22
 35e:	7d 93       	st	X+, r23
 360:	8d 93       	st	X+, r24
 362:	9c 93       	st	X, r25
 364:	1f 97       	sbiw	r26, 0x0f	; 15
		for(uint8_t i=0; i<4; i++){
			filtered_pot[i]=lp_fil_a*filtered_pot[i]+lp_fil_b*pot_av[i];
 366:	80 91 05 02 	lds	r24, 0x0205	; 0x800205 <lp_fil_a>
 36a:	90 91 06 02 	lds	r25, 0x0206	; 0x800206 <lp_fil_a+0x1>
 36e:	a0 91 07 02 	lds	r26, 0x0207	; 0x800207 <lp_fil_a+0x2>
 372:	b0 91 08 02 	lds	r27, 0x0208	; 0x800208 <lp_fil_a+0x3>
 376:	8d 83       	std	Y+5, r24	; 0x05
 378:	9e 83       	std	Y+6, r25	; 0x06
 37a:	af 83       	std	Y+7, r26	; 0x07
 37c:	b8 87       	std	Y+8, r27	; 0x08
 37e:	80 90 01 02 	lds	r8, 0x0201	; 0x800201 <lp_fil_b>
 382:	90 90 02 02 	lds	r9, 0x0202	; 0x800202 <lp_fil_b+0x1>
 386:	a0 90 03 02 	lds	r10, 0x0203	; 0x800203 <lp_fil_b+0x2>
 38a:	b0 90 04 02 	lds	r11, 0x0204	; 0x800204 <lp_fil_b+0x3>
 38e:	ab e1       	ldi	r26, 0x1B	; 27
 390:	b2 e0       	ldi	r27, 0x02	; 2
 392:	ba 87       	std	Y+10, r27	; 0x0a
 394:	a9 87       	std	Y+9, r26	; 0x09
 396:	0f 2e       	mov	r0, r31
 398:	f2 e1       	ldi	r31, 0x12	; 18
 39a:	ef 2e       	mov	r14, r31
 39c:	f2 e0       	ldi	r31, 0x02	; 2
 39e:	ff 2e       	mov	r15, r31
 3a0:	f0 2d       	mov	r31, r0
 3a2:	0f 2e       	mov	r0, r31
 3a4:	fb e3       	ldi	r31, 0x3B	; 59
 3a6:	cf 2e       	mov	r12, r31
 3a8:	f2 e0       	ldi	r31, 0x02	; 2
 3aa:	df 2e       	mov	r13, r31
 3ac:	f0 2d       	mov	r31, r0
 3ae:	f8 01       	movw	r30, r16
 3b0:	41 90       	ld	r4, Z+
 3b2:	51 90       	ld	r5, Z+
 3b4:	61 90       	ld	r6, Z+
 3b6:	71 90       	ld	r7, Z+
 3b8:	8f 01       	movw	r16, r30
 3ba:	a9 85       	ldd	r26, Y+9	; 0x09
 3bc:	ba 85       	ldd	r27, Y+10	; 0x0a
 3be:	2d 91       	ld	r18, X+
 3c0:	3d 91       	ld	r19, X+
 3c2:	4d 91       	ld	r20, X+
 3c4:	5c 91       	ld	r21, X
 3c6:	6d 81       	ldd	r22, Y+5	; 0x05
 3c8:	7e 81       	ldd	r23, Y+6	; 0x06
 3ca:	8f 81       	ldd	r24, Y+7	; 0x07
 3cc:	98 85       	ldd	r25, Y+8	; 0x08
 3ce:	84 d5       	rcall	.+2824   	; 0xed8 <__mulsf3>
 3d0:	69 83       	std	Y+1, r22	; 0x01
 3d2:	7a 83       	std	Y+2, r23	; 0x02
 3d4:	8b 83       	std	Y+3, r24	; 0x03
 3d6:	9c 83       	std	Y+4, r25	; 0x04
 3d8:	a5 01       	movw	r20, r10
 3da:	94 01       	movw	r18, r8
 3dc:	c3 01       	movw	r24, r6
 3de:	b2 01       	movw	r22, r4
 3e0:	7b d5       	rcall	.+2806   	; 0xed8 <__mulsf3>
 3e2:	9b 01       	movw	r18, r22
 3e4:	ac 01       	movw	r20, r24
 3e6:	69 81       	ldd	r22, Y+1	; 0x01
 3e8:	7a 81       	ldd	r23, Y+2	; 0x02
 3ea:	8b 81       	ldd	r24, Y+3	; 0x03
 3ec:	9c 81       	ldd	r25, Y+4	; 0x04
 3ee:	bd d3       	rcall	.+1914   	; 0xb6a <__addsf3>
 3f0:	e9 85       	ldd	r30, Y+9	; 0x09
 3f2:	fa 85       	ldd	r31, Y+10	; 0x0a
 3f4:	61 93       	st	Z+, r22
 3f6:	71 93       	st	Z+, r23
 3f8:	81 93       	st	Z+, r24
 3fa:	91 93       	st	Z+, r25
 3fc:	fa 87       	std	Y+10, r31	; 0x0a
			adc_res[i]=(uint16_t)filtered_pot[i];
 3fe:	e9 87       	std	Y+9, r30	; 0x09
 400:	89 d4       	rcall	.+2322   	; 0xd14 <__fixunssfsi>
 402:	d7 01       	movw	r26, r14
 404:	6d 93       	st	X+, r22
 406:	7d 93       	st	X+, r23
 408:	7d 01       	movw	r14, r26
		
		pot_av[0]=(pot_res[0]+pot_res[4]+pot_res[8])/3;
		pot_av[1]=(pot_res[1]+pot_res[5]+pot_res[9])/3;
		pot_av[2]=(pot_res[2]+pot_res[6]+pot_res[10])/3;
		pot_av[3]=(pot_res[3]+pot_res[7]+pot_res[11])/3;
		for(uint8_t i=0; i<4; i++){
 40a:	0c 15       	cp	r16, r12
 40c:	1d 05       	cpc	r17, r13
 40e:	79 f6       	brne	.-98     	; 0x3ae <__vector_29+0x272>
			adc_res[i]=(uint16_t)filtered_pot[i];
		}
		
		#endif
	}
	ADCSRA|=(1<<ADSC);
 410:	ea e7       	ldi	r30, 0x7A	; 122
 412:	f0 e0       	ldi	r31, 0x00	; 0
 414:	80 81       	ld	r24, Z
 416:	80 64       	ori	r24, 0x40	; 64
 418:	80 83       	st	Z, r24
 41a:	2a 96       	adiw	r28, 0x0a	; 10
 41c:	0f b6       	in	r0, 0x3f	; 63
 41e:	f8 94       	cli
 420:	de bf       	out	0x3e, r29	; 62
 422:	0f be       	out	0x3f, r0	; 63
 424:	cd bf       	out	0x3d, r28	; 61
 426:	df 91       	pop	r29
 428:	cf 91       	pop	r28
 42a:	ff 91       	pop	r31
 42c:	ef 91       	pop	r30
 42e:	bf 91       	pop	r27
 430:	af 91       	pop	r26
 432:	9f 91       	pop	r25
 434:	8f 91       	pop	r24
 436:	7f 91       	pop	r23
 438:	6f 91       	pop	r22
 43a:	5f 91       	pop	r21
 43c:	4f 91       	pop	r20
 43e:	3f 91       	pop	r19
 440:	2f 91       	pop	r18
 442:	1f 91       	pop	r17
 444:	0f 91       	pop	r16
 446:	ff 90       	pop	r15
 448:	ef 90       	pop	r14
 44a:	df 90       	pop	r13
 44c:	cf 90       	pop	r12
 44e:	bf 90       	pop	r11
 450:	af 90       	pop	r10
 452:	9f 90       	pop	r9
 454:	8f 90       	pop	r8
 456:	7f 90       	pop	r7
 458:	6f 90       	pop	r6
 45a:	5f 90       	pop	r5
 45c:	4f 90       	pop	r4
 45e:	0f 90       	pop	r0
 460:	0b be       	out	0x3b, r0	; 59
 462:	0f 90       	pop	r0
 464:	0f be       	out	0x3f, r0	; 63
 466:	0f 90       	pop	r0
 468:	1f 90       	pop	r1
 46a:	18 95       	reti

0000046c <InitAll>:
		UartTransmitByte('\r');
	}
}

void InitAll(void){
	UartInit();
 46c:	4a d2       	rcall	.+1172   	; 0x902 <UartInit>
	DDRB|=(1<<7);
 46e:	27 9a       	sbi	0x04, 7	; 4
	DDRF|=(1<<5);
	AdcInit();
 470:	85 9a       	sbi	0x10, 5	; 16
	StMotInit();
 472:	58 de       	rcall	.-848    	; 0x124 <AdcInit>
 474:	3d d0       	rcall	.+122    	; 0x4f0 <StMotInit>
	#else
		//round up by default
		__ticks_dc = (uint32_t)(ceil(fabs(__tmp)));
	#endif

	__builtin_avr_delay_cycles(__ticks_dc);
 476:	2f ef       	ldi	r18, 0xFF	; 255
 478:	81 ee       	ldi	r24, 0xE1	; 225
 47a:	94 e0       	ldi	r25, 0x04	; 4
 47c:	21 50       	subi	r18, 0x01	; 1
 47e:	80 40       	sbci	r24, 0x00	; 0
 480:	90 40       	sbci	r25, 0x00	; 0
 482:	e1 f7       	brne	.-8      	; 0x47c <InitAll+0x10>
 484:	00 c0       	rjmp	.+0      	; 0x486 <InitAll+0x1a>
 486:	00 00       	nop
	//StMotGo(0);
	_delay_ms(100);
	sei();
 488:	78 94       	sei
 48a:	08 95       	ret

0000048c <main>:

void InitAll(void);

int main(void)
{
	InitAll();
 48c:	ef df       	rcall	.-34     	; 0x46c <InitAll>
	float angle = 0;
	while (1)
	{
		//получаем данные с терминала
		angle = UartReceiveData();
 48e:	69 d2       	rcall	.+1234   	; 0x962 <UartReceiveData>
		// выставл€ем скорость вращени€ двигател€
		SetAngle(angle);
 490:	82 d0       	rcall	.+260    	; 0x596 <SetAngle>
		// табул€ци€ положени€ курсора в терминале
		UartTransmitByte('\t');
 492:	89 e0       	ldi	r24, 0x09	; 9
 494:	ec d1       	rcall	.+984    	; 0x86e <UartTransmitByte>
		UartSendDec(GetMotPos());
 496:	11 d1       	rcall	.+546    	; 0x6ba <GetMotPos>
 498:	38 d4       	rcall	.+2160   	; 0xd0a <__fixsfsi>
 49a:	cb 01       	movw	r24, r22
 49c:	f0 d1       	rcall	.+992    	; 0x87e <UartSendDec>
 49e:	89 e0       	ldi	r24, 0x09	; 9
		UartTransmitByte('\t');
 4a0:	e6 d1       	rcall	.+972    	; 0x86e <UartTransmitByte>
 4a2:	c0 e0       	ldi	r28, 0x00	; 0
 4a4:	d0 e0       	ldi	r29, 0x00	; 0
 4a6:	2c d0       	rcall	.+88     	; 0x500 <GetInfo>
 4a8:	8c 0f       	add	r24, r28
		
			
		// выводим только что переданное значение
		for (int i = 0; i < 3; i++){
			UartSendDec(GetInfo()[i]);
 4aa:	9d 1f       	adc	r25, r29
 4ac:	fc 01       	movw	r30, r24
 4ae:	60 81       	ld	r22, Z
 4b0:	71 81       	ldd	r23, Z+1	; 0x01
 4b2:	82 81       	ldd	r24, Z+2	; 0x02
 4b4:	93 81       	ldd	r25, Z+3	; 0x03
 4b6:	29 d4       	rcall	.+2130   	; 0xd0a <__fixsfsi>
 4b8:	cb 01       	movw	r24, r22
 4ba:	e1 d1       	rcall	.+962    	; 0x87e <UartSendDec>
 4bc:	89 e0       	ldi	r24, 0x09	; 9
			UartTransmitByte('\t');
 4be:	d7 d1       	rcall	.+942    	; 0x86e <UartTransmitByte>
 4c0:	24 96       	adiw	r28, 0x04	; 4
 4c2:	cc 30       	cpi	r28, 0x0C	; 12
 4c4:	d1 05       	cpc	r29, r1
		UartSendDec(GetMotPos());
		UartTransmitByte('\t');
		
			
		// выводим только что переданное значение
		for (int i = 0; i < 3; i++){
 4c6:	79 f7       	brne	.-34     	; 0x4a6 <main+0x1a>
 4c8:	8d e0       	ldi	r24, 0x0D	; 13
 4ca:	d1 d1       	rcall	.+930    	; 0x86e <UartTransmitByte>
		
		//UartTransmitByte('\t');
		//error = data - GetSpeed();
		//UartSendDec(error);
		
		UartTransmitByte('\r');
 4cc:	e0 cf       	rjmp	.-64     	; 0x48e <main+0x2>

000004ce <StMotTim1Init>:
 4ce:	e1 e8       	ldi	r30, 0x81	; 129
 4d0:	f0 e0       	ldi	r31, 0x00	; 0
	}
 4d2:	80 81       	ld	r24, Z


void StMotGo(){
	//angle_setpoint=angle-current_angle;
	StMotDir(angle_setpoint);
	pulse_setpoint=abs(angle_setpoint) * ANGLE_TO_STEPS;
 4d4:	83 60       	ori	r24, 0x03	; 3
 4d6:	80 83       	st	Z, r24
 4d8:	8b e9       	ldi	r24, 0x9B	; 155
 4da:	9f ef       	ldi	r25, 0xFF	; 255
 4dc:	90 93 85 00 	sts	0x0085, r25	; 0x800085 <__TEXT_REGION_LENGTH__+0x7c0085>
 4e0:	80 93 84 00 	sts	0x0084, r24	; 0x800084 <__TEXT_REGION_LENGTH__+0x7c0084>
 4e4:	ef e6       	ldi	r30, 0x6F	; 111
 4e6:	f0 e0       	ldi	r31, 0x00	; 0
 4e8:	80 81       	ld	r24, Z
 4ea:	81 60       	ori	r24, 0x01	; 1
 4ec:	80 83       	st	Z, r24
 4ee:	08 95       	ret

000004f0 <StMotInit>:
 4f0:	ee df       	rcall	.-36     	; 0x4ce <StMotTim1Init>
 4f2:	08 9a       	sbi	0x01, 0	; 1
 4f4:	09 9a       	sbi	0x01, 1	; 1
 4f6:	10 92 70 02 	sts	0x0270, r1	; 0x800270 <pulse_setpoint+0x1>
 4fa:	10 92 6f 02 	sts	0x026F, r1	; 0x80026f <pulse_setpoint>
 4fe:	08 95       	ret

00000500 <GetInfo>:
 500:	cf 93       	push	r28
 502:	df 93       	push	r29
 504:	c3 e5       	ldi	r28, 0x53	; 83
 506:	d2 e0       	ldi	r29, 0x02	; 2
 508:	80 91 63 02 	lds	r24, 0x0263	; 0x800263 <set_angle>
 50c:	90 91 64 02 	lds	r25, 0x0264	; 0x800264 <set_angle+0x1>
 510:	a0 91 65 02 	lds	r26, 0x0265	; 0x800265 <set_angle+0x2>
 514:	b0 91 66 02 	lds	r27, 0x0266	; 0x800266 <set_angle+0x3>
 518:	88 83       	st	Y, r24
 51a:	99 83       	std	Y+1, r25	; 0x01
 51c:	aa 83       	std	Y+2, r26	; 0x02
 51e:	bb 83       	std	Y+3, r27	; 0x03
 520:	80 e0       	ldi	r24, 0x00	; 0
 522:	90 e0       	ldi	r25, 0x00	; 0
 524:	a0 ea       	ldi	r26, 0xA0	; 160
 526:	b0 e4       	ldi	r27, 0x40	; 64
 528:	8c 83       	std	Y+4, r24	; 0x04
 52a:	9d 83       	std	Y+5, r25	; 0x05
 52c:	ae 83       	std	Y+6, r26	; 0x06
 52e:	bf 83       	std	Y+7, r27	; 0x07
 530:	60 91 73 02 	lds	r22, 0x0273	; 0x800273 <operate_flag>
 534:	70 e0       	ldi	r23, 0x00	; 0
 536:	80 e0       	ldi	r24, 0x00	; 0
 538:	90 e0       	ldi	r25, 0x00	; 0
 53a:	18 d4       	rcall	.+2096   	; 0xd6c <__floatunsisf>
 53c:	68 87       	std	Y+8, r22	; 0x08
 53e:	79 87       	std	Y+9, r23	; 0x09
 540:	8a 87       	std	Y+10, r24	; 0x0a
 542:	9b 87       	std	Y+11, r25	; 0x0b
 544:	ce 01       	movw	r24, r28
 546:	df 91       	pop	r29
 548:	cf 91       	pop	r28
 54a:	08 95       	ret

0000054c <StMotPul>:
 54c:	92 b1       	in	r25, 0x02	; 2
 54e:	81 e0       	ldi	r24, 0x01	; 1
 550:	89 27       	eor	r24, r25
 552:	82 b9       	out	0x02, r24	; 2
 554:	92 b1       	in	r25, 0x02	; 2
 556:	84 e0       	ldi	r24, 0x04	; 4
 558:	89 27       	eor	r24, r25
 55a:	82 b9       	out	0x02, r24	; 2
 55c:	92 b1       	in	r25, 0x02	; 2
 55e:	80 e1       	ldi	r24, 0x10	; 16
 560:	89 27       	eor	r24, r25
 562:	82 b9       	out	0x02, r24	; 2
 564:	92 b1       	in	r25, 0x02	; 2
 566:	80 e4       	ldi	r24, 0x40	; 64
 568:	89 27       	eor	r24, r25
 56a:	82 b9       	out	0x02, r24	; 2
 56c:	08 95       	ret

0000056e <StMotDir>:
 56e:	20 e0       	ldi	r18, 0x00	; 0
 570:	30 e0       	ldi	r19, 0x00	; 0
 572:	a9 01       	movw	r20, r18
 574:	ad d4       	rcall	.+2394   	; 0xed0 <__gesf2>
 576:	88 23       	and	r24, r24
 578:	2c f0       	brlt	.+10     	; 0x584 <StMotDir+0x16>
 57a:	11 9a       	sbi	0x02, 1	; 2
 57c:	13 9a       	sbi	0x02, 3	; 2
 57e:	15 9a       	sbi	0x02, 5	; 2
 580:	17 9a       	sbi	0x02, 7	; 2
 582:	08 95       	ret
 584:	82 b1       	in	r24, 0x02	; 2
 586:	12 b8       	out	0x02, r1	; 2
 588:	82 b1       	in	r24, 0x02	; 2
 58a:	12 b8       	out	0x02, r1	; 2
 58c:	82 b1       	in	r24, 0x02	; 2
 58e:	12 b8       	out	0x02, r1	; 2
 590:	82 b1       	in	r24, 0x02	; 2
 592:	12 b8       	out	0x02, r1	; 2
 594:	08 95       	ret

00000596 <SetAngle>:
		ST_MOT_DIR_PORT&=(0<<PORT_DIR3);
		ST_MOT_DIR_PORT&=(0<<PORT_DIR4);
	}
}

void SetAngle(float angle){
 596:	8f 92       	push	r8
 598:	9f 92       	push	r9
 59a:	af 92       	push	r10
 59c:	bf 92       	push	r11
 59e:	cf 92       	push	r12
 5a0:	df 92       	push	r13
 5a2:	ef 92       	push	r14
 5a4:	ff 92       	push	r15
 5a6:	cf 93       	push	r28
 5a8:	6b 01       	movw	r12, r22
 5aa:	7c 01       	movw	r14, r24

	//limiting the setpoint +/- 90 degrees

	if(angle<MIN_ANGLE) angle=MIN_ANGLE;
 5ac:	20 e0       	ldi	r18, 0x00	; 0
 5ae:	30 e0       	ldi	r19, 0x00	; 0
 5b0:	44 eb       	ldi	r20, 0xB4	; 180
 5b2:	52 ec       	ldi	r21, 0xC2	; 194
 5b4:	3e d3       	rcall	.+1660   	; 0xc32 <__cmpsf2>
 5b6:	88 23       	and	r24, r24
 5b8:	94 f0       	brlt	.+36     	; 0x5de <SetAngle+0x48>
	if(angle>MAX_ANGLE) angle=MAX_ANGLE;
 5ba:	20 e0       	ldi	r18, 0x00	; 0
 5bc:	30 e0       	ldi	r19, 0x00	; 0
 5be:	44 eb       	ldi	r20, 0xB4	; 180
 5c0:	52 e4       	ldi	r21, 0x42	; 66
 5c2:	c7 01       	movw	r24, r14
 5c4:	b6 01       	movw	r22, r12
 5c6:	84 d4       	rcall	.+2312   	; 0xed0 <__gesf2>
 5c8:	18 16       	cp	r1, r24
 5ca:	8c f4       	brge	.+34     	; 0x5ee <SetAngle+0x58>
 5cc:	0f 2e       	mov	r0, r31
 5ce:	c1 2c       	mov	r12, r1
 5d0:	d1 2c       	mov	r13, r1
 5d2:	f4 eb       	ldi	r31, 0xB4	; 180
 5d4:	ef 2e       	mov	r14, r31
 5d6:	f2 e4       	ldi	r31, 0x42	; 66
 5d8:	ff 2e       	mov	r15, r31
 5da:	f0 2d       	mov	r31, r0
 5dc:	08 c0       	rjmp	.+16     	; 0x5ee <SetAngle+0x58>

void SetAngle(float angle){

	//limiting the setpoint +/- 90 degrees

	if(angle<MIN_ANGLE) angle=MIN_ANGLE;
 5de:	0f 2e       	mov	r0, r31
 5e0:	c1 2c       	mov	r12, r1
 5e2:	d1 2c       	mov	r13, r1
 5e4:	f4 eb       	ldi	r31, 0xB4	; 180
 5e6:	ef 2e       	mov	r14, r31
 5e8:	f2 ec       	ldi	r31, 0xC2	; 194
 5ea:	ff 2e       	mov	r15, r31
 5ec:	f0 2d       	mov	r31, r0
	if(angle>MAX_ANGLE) angle=MAX_ANGLE;
	if ((angle!=current_angle) & (operate_flag == 0))
 5ee:	80 90 67 02 	lds	r8, 0x0267	; 0x800267 <current_angle>
 5f2:	90 90 68 02 	lds	r9, 0x0268	; 0x800268 <current_angle+0x1>
 5f6:	a0 90 69 02 	lds	r10, 0x0269	; 0x800269 <current_angle+0x2>
 5fa:	b0 90 6a 02 	lds	r11, 0x026A	; 0x80026a <current_angle+0x3>
 5fe:	81 e0       	ldi	r24, 0x01	; 1
 600:	90 91 73 02 	lds	r25, 0x0273	; 0x800273 <operate_flag>
 604:	91 11       	cpse	r25, r1
 606:	80 e0       	ldi	r24, 0x00	; 0
 608:	88 23       	and	r24, r24
 60a:	09 f4       	brne	.+2      	; 0x60e <SetAngle+0x78>
 60c:	4c c0       	rjmp	.+152    	; 0x6a6 <SetAngle+0x110>
 60e:	c1 e0       	ldi	r28, 0x01	; 1
 610:	a5 01       	movw	r20, r10
 612:	94 01       	movw	r18, r8
 614:	c7 01       	movw	r24, r14
 616:	b6 01       	movw	r22, r12
 618:	0c d3       	rcall	.+1560   	; 0xc32 <__cmpsf2>
 61a:	81 11       	cpse	r24, r1
 61c:	01 c0       	rjmp	.+2      	; 0x620 <SetAngle+0x8a>
 61e:	c0 e0       	ldi	r28, 0x00	; 0
 620:	cc 23       	and	r28, r28
 622:	09 f4       	brne	.+2      	; 0x626 <SetAngle+0x90>
 624:	40 c0       	rjmp	.+128    	; 0x6a6 <SetAngle+0x110>
	{
		set_angle = angle;
 626:	c0 92 63 02 	sts	0x0263, r12	; 0x800263 <set_angle>
 62a:	d0 92 64 02 	sts	0x0264, r13	; 0x800264 <set_angle+0x1>
 62e:	e0 92 65 02 	sts	0x0265, r14	; 0x800265 <set_angle+0x2>
 632:	f0 92 66 02 	sts	0x0266, r15	; 0x800266 <set_angle+0x3>
		angle_setpoint = angle - current_angle;
 636:	a5 01       	movw	r20, r10
 638:	94 01       	movw	r18, r8
 63a:	c7 01       	movw	r24, r14
 63c:	b6 01       	movw	r22, r12
 63e:	94 d2       	rcall	.+1320   	; 0xb68 <__subsf3>
 640:	60 93 6b 02 	sts	0x026B, r22	; 0x80026b <angle_setpoint>
 644:	70 93 6c 02 	sts	0x026C, r23	; 0x80026c <angle_setpoint+0x1>
 648:	80 93 6d 02 	sts	0x026D, r24	; 0x80026d <angle_setpoint+0x2>
 64c:	90 93 6e 02 	sts	0x026E, r25	; 0x80026e <angle_setpoint+0x3>
		StMotDir(angle_setpoint);
 650:	8e df       	rcall	.-228    	; 0x56e <StMotDir>
		pulse_setpoint=abs(angle_setpoint) * ANGLE_TO_STEPS;
 652:	60 91 6b 02 	lds	r22, 0x026B	; 0x80026b <angle_setpoint>
 656:	70 91 6c 02 	lds	r23, 0x026C	; 0x80026c <angle_setpoint+0x1>
 65a:	80 91 6d 02 	lds	r24, 0x026D	; 0x80026d <angle_setpoint+0x2>
 65e:	90 91 6e 02 	lds	r25, 0x026E	; 0x80026e <angle_setpoint+0x3>
 662:	53 d3       	rcall	.+1702   	; 0xd0a <__fixsfsi>
 664:	9b 01       	movw	r18, r22
 666:	77 23       	and	r23, r23
 668:	24 f4       	brge	.+8      	; 0x672 <SetAngle+0xdc>
 66a:	22 27       	eor	r18, r18
 66c:	33 27       	eor	r19, r19
 66e:	26 1b       	sub	r18, r22
 670:	37 0b       	sbc	r19, r23
 672:	b9 01       	movw	r22, r18
 674:	33 0f       	add	r19, r19
 676:	88 0b       	sbc	r24, r24
 678:	99 0b       	sbc	r25, r25
 67a:	7a d3       	rcall	.+1780   	; 0xd70 <__floatsisf>
 67c:	20 e0       	ldi	r18, 0x00	; 0
 67e:	30 e0       	ldi	r19, 0x00	; 0
 680:	48 e4       	ldi	r20, 0x48	; 72
 682:	55 e4       	ldi	r21, 0x45	; 69
 684:	29 d4       	rcall	.+2130   	; 0xed8 <__mulsf3>
 686:	9b 01       	movw	r18, r22
 688:	ac 01       	movw	r20, r24
 68a:	6f d2       	rcall	.+1246   	; 0xb6a <__addsf3>
 68c:	20 e0       	ldi	r18, 0x00	; 0
 68e:	30 e0       	ldi	r19, 0x00	; 0
 690:	44 eb       	ldi	r20, 0xB4	; 180
 692:	53 e4       	ldi	r21, 0x43	; 67
 694:	d2 d2       	rcall	.+1444   	; 0xc3a <__divsf3>
 696:	3e d3       	rcall	.+1660   	; 0xd14 <__fixunssfsi>
 698:	70 93 70 02 	sts	0x0270, r23	; 0x800270 <pulse_setpoint+0x1>
 69c:	60 93 6f 02 	sts	0x026F, r22	; 0x80026f <pulse_setpoint>
		operate_flag = 1;
 6a0:	81 e0       	ldi	r24, 0x01	; 1
 6a2:	80 93 73 02 	sts	0x0273, r24	; 0x800273 <operate_flag>
	}

}
 6a6:	cf 91       	pop	r28
 6a8:	ff 90       	pop	r15
 6aa:	ef 90       	pop	r14
 6ac:	df 90       	pop	r13
 6ae:	cf 90       	pop	r12
 6b0:	bf 90       	pop	r11
 6b2:	af 90       	pop	r10
 6b4:	9f 90       	pop	r9
 6b6:	8f 90       	pop	r8
 6b8:	08 95       	ret

000006ba <GetMotPos>:

float GetMotPos(void){
	float real_mot_pos;
	real_mot_pos=(512.0f-(float)AdcGetPos()[0])*0.268;
 6ba:	3d dd       	rcall	.-1414   	; 0x136 <AdcGetPos>
	return -real_mot_pos;
 6bc:	fc 01       	movw	r30, r24
 6be:	60 81       	ld	r22, Z
 6c0:	71 81       	ldd	r23, Z+1	; 0x01
 6c2:	80 e0       	ldi	r24, 0x00	; 0
 6c4:	90 e0       	ldi	r25, 0x00	; 0
 6c6:	52 d3       	rcall	.+1700   	; 0xd6c <__floatunsisf>
 6c8:	9b 01       	movw	r18, r22
 6ca:	ac 01       	movw	r20, r24
 6cc:	60 e0       	ldi	r22, 0x00	; 0
 6ce:	70 e0       	ldi	r23, 0x00	; 0
 6d0:	80 e0       	ldi	r24, 0x00	; 0
 6d2:	94 e4       	ldi	r25, 0x44	; 68
 6d4:	49 d2       	rcall	.+1170   	; 0xb68 <__subsf3>
 6d6:	2c e4       	ldi	r18, 0x4C	; 76
 6d8:	37 e3       	ldi	r19, 0x37	; 55
 6da:	49 e8       	ldi	r20, 0x89	; 137
 6dc:	5e e3       	ldi	r21, 0x3E	; 62
 6de:	fc d3       	rcall	.+2040   	; 0xed8 <__mulsf3>
 6e0:	90 58       	subi	r25, 0x80	; 128
	
}
 6e2:	08 95       	ret

000006e4 <__vector_20>:

	pulse_setpoint=0;
	
}

ISR(TIMER1_OVF_vect){
 6e4:	1f 92       	push	r1
 6e6:	0f 92       	push	r0
 6e8:	0f b6       	in	r0, 0x3f	; 63
 6ea:	0f 92       	push	r0
 6ec:	11 24       	eor	r1, r1
 6ee:	0b b6       	in	r0, 0x3b	; 59
 6f0:	0f 92       	push	r0
 6f2:	8f 92       	push	r8
 6f4:	9f 92       	push	r9
 6f6:	af 92       	push	r10
 6f8:	bf 92       	push	r11
 6fa:	cf 92       	push	r12
 6fc:	df 92       	push	r13
 6fe:	ef 92       	push	r14
 700:	ff 92       	push	r15
 702:	2f 93       	push	r18
 704:	3f 93       	push	r19
 706:	4f 93       	push	r20
 708:	5f 93       	push	r21
 70a:	6f 93       	push	r22
 70c:	7f 93       	push	r23
 70e:	8f 93       	push	r24
 710:	9f 93       	push	r25
 712:	af 93       	push	r26
 714:	bf 93       	push	r27
 716:	ef 93       	push	r30
 718:	ff 93       	push	r31
	TCNT1=65535-100; //timer period = 400 us
 71a:	8b e9       	ldi	r24, 0x9B	; 155
 71c:	9f ef       	ldi	r25, 0xFF	; 255
 71e:	90 93 85 00 	sts	0x0085, r25	; 0x800085 <__TEXT_REGION_LENGTH__+0x7c0085>
 722:	80 93 84 00 	sts	0x0084, r24	; 0x800084 <__TEXT_REGION_LENGTH__+0x7c0084>

	//StMotGo();
	if (operate_flag)
 726:	80 91 73 02 	lds	r24, 0x0273	; 0x800273 <operate_flag>
 72a:	88 23       	and	r24, r24
 72c:	09 f4       	brne	.+2      	; 0x730 <__vector_20+0x4c>
 72e:	84 c0       	rjmp	.+264    	; 0x838 <__vector_20+0x154>
	{
		if (pulse_count < pulse_setpoint){
 730:	20 91 71 02 	lds	r18, 0x0271	; 0x800271 <pulse_count>
 734:	30 91 72 02 	lds	r19, 0x0272	; 0x800272 <pulse_count+0x1>
 738:	80 91 6f 02 	lds	r24, 0x026F	; 0x80026f <pulse_setpoint>
 73c:	90 91 70 02 	lds	r25, 0x0270	; 0x800270 <pulse_setpoint+0x1>
 740:	28 17       	cp	r18, r24
 742:	39 07       	cpc	r19, r25
 744:	58 f4       	brcc	.+22     	; 0x75c <__vector_20+0x78>
			StMotPul();
 746:	02 df       	rcall	.-508    	; 0x54c <StMotPul>
			pulse_count++;
 748:	80 91 71 02 	lds	r24, 0x0271	; 0x800271 <pulse_count>
 74c:	90 91 72 02 	lds	r25, 0x0272	; 0x800272 <pulse_count+0x1>
 750:	01 96       	adiw	r24, 0x01	; 1
 752:	90 93 72 02 	sts	0x0272, r25	; 0x800272 <pulse_count+0x1>
 756:	80 93 71 02 	sts	0x0271, r24	; 0x800271 <pulse_count>
			
		}
		else
		{
			//float real_mot_pos;
			real_mot_pos = GetMotPos();
 75a:	6e c0       	rjmp	.+220    	; 0x838 <__vector_20+0x154>
 75c:	ae df       	rcall	.-164    	; 0x6ba <GetMotPos>
 75e:	6b 01       	movw	r12, r22
 760:	7c 01       	movw	r14, r24
 762:	60 93 5f 02 	sts	0x025F, r22	; 0x80025f <real_mot_pos>
 766:	70 93 60 02 	sts	0x0260, r23	; 0x800260 <real_mot_pos+0x1>
 76a:	80 93 61 02 	sts	0x0261, r24	; 0x800261 <real_mot_pos+0x2>
 76e:	90 93 62 02 	sts	0x0262, r25	; 0x800262 <real_mot_pos+0x3>
			
			if((real_mot_pos>=(set_angle-POS_ERR)) && (real_mot_pos<=(set_angle+POS_ERR)))
 772:	80 90 63 02 	lds	r8, 0x0263	; 0x800263 <set_angle>
 776:	90 90 64 02 	lds	r9, 0x0264	; 0x800264 <set_angle+0x1>
 77a:	a0 90 65 02 	lds	r10, 0x0265	; 0x800265 <set_angle+0x2>
 77e:	b0 90 66 02 	lds	r11, 0x0266	; 0x800266 <set_angle+0x3>
 782:	20 e0       	ldi	r18, 0x00	; 0
 784:	30 e0       	ldi	r19, 0x00	; 0
 786:	40 ea       	ldi	r20, 0xA0	; 160
 788:	50 e4       	ldi	r21, 0x40	; 64
 78a:	c5 01       	movw	r24, r10
 78c:	b4 01       	movw	r22, r8
 78e:	ec d1       	rcall	.+984    	; 0xb68 <__subsf3>
 790:	9b 01       	movw	r18, r22
 792:	ac 01       	movw	r20, r24
 794:	c7 01       	movw	r24, r14
 796:	b6 01       	movw	r22, r12
 798:	9b d3       	rcall	.+1846   	; 0xed0 <__gesf2>
 79a:	88 23       	and	r24, r24
 79c:	ec f0       	brlt	.+58     	; 0x7d8 <__vector_20+0xf4>
 79e:	20 e0       	ldi	r18, 0x00	; 0
 7a0:	30 e0       	ldi	r19, 0x00	; 0
 7a2:	40 ea       	ldi	r20, 0xA0	; 160
 7a4:	50 e4       	ldi	r21, 0x40	; 64
 7a6:	c5 01       	movw	r24, r10
 7a8:	b4 01       	movw	r22, r8
 7aa:	df d1       	rcall	.+958    	; 0xb6a <__addsf3>
 7ac:	9b 01       	movw	r18, r22
 7ae:	ac 01       	movw	r20, r24
 7b0:	c7 01       	movw	r24, r14
 7b2:	b6 01       	movw	r22, r12
 7b4:	3e d2       	rcall	.+1148   	; 0xc32 <__cmpsf2>
 7b6:	18 16       	cp	r1, r24
 7b8:	7c f0       	brlt	.+30     	; 0x7d8 <__vector_20+0xf4>
			{
				operate_flag=0;
 7ba:	10 92 73 02 	sts	0x0273, r1	; 0x800273 <operate_flag>
				current_angle=set_angle;
 7be:	80 92 67 02 	sts	0x0267, r8	; 0x800267 <current_angle>
 7c2:	90 92 68 02 	sts	0x0268, r9	; 0x800268 <current_angle+0x1>
 7c6:	a0 92 69 02 	sts	0x0269, r10	; 0x800269 <current_angle+0x2>
 7ca:	b0 92 6a 02 	sts	0x026A, r11	; 0x80026a <current_angle+0x3>
				pulse_count=0;
 7ce:	10 92 72 02 	sts	0x0272, r1	; 0x800272 <pulse_count+0x1>
 7d2:	10 92 71 02 	sts	0x0271, r1	; 0x800271 <pulse_count>
 7d6:	30 c0       	rjmp	.+96     	; 0x838 <__vector_20+0x154>
				
			}
			else
			{
				operate_flag=1;
 7d8:	81 e0       	ldi	r24, 0x01	; 1
 7da:	80 93 73 02 	sts	0x0273, r24	; 0x800273 <operate_flag>
				//angle_setpoint_delta is a difference between setpoint and real angle of the shaft
				float angle_setpoint_delta=set_angle-real_mot_pos;
 7de:	a7 01       	movw	r20, r14
 7e0:	96 01       	movw	r18, r12
 7e2:	c5 01       	movw	r24, r10
 7e4:	b4 01       	movw	r22, r8
 7e6:	c0 d1       	rcall	.+896    	; 0xb68 <__subsf3>
				//setting up the direction of rotation according to delta
				StMotDir(angle_setpoint_delta);
 7e8:	6b 01       	movw	r12, r22
 7ea:	7c 01       	movw	r14, r24
				//3200 steps (LOOK FOR THE STEPPER MODE!) / 180 degrees
				pulse_setpoint=abs(angle_setpoint_delta) * ANGLE_TO_STEPS;
 7ec:	c0 de       	rcall	.-640    	; 0x56e <StMotDir>
 7ee:	c7 01       	movw	r24, r14
 7f0:	b6 01       	movw	r22, r12
 7f2:	8b d2       	rcall	.+1302   	; 0xd0a <__fixsfsi>
 7f4:	9b 01       	movw	r18, r22
 7f6:	77 23       	and	r23, r23
 7f8:	24 f4       	brge	.+8      	; 0x802 <__vector_20+0x11e>
 7fa:	22 27       	eor	r18, r18
 7fc:	33 27       	eor	r19, r19
 7fe:	26 1b       	sub	r18, r22
 800:	37 0b       	sbc	r19, r23
 802:	b9 01       	movw	r22, r18
 804:	33 0f       	add	r19, r19
 806:	88 0b       	sbc	r24, r24
 808:	99 0b       	sbc	r25, r25
 80a:	b2 d2       	rcall	.+1380   	; 0xd70 <__floatsisf>
 80c:	20 e0       	ldi	r18, 0x00	; 0
 80e:	30 e0       	ldi	r19, 0x00	; 0
 810:	48 e4       	ldi	r20, 0x48	; 72
 812:	55 e4       	ldi	r21, 0x45	; 69
 814:	61 d3       	rcall	.+1730   	; 0xed8 <__mulsf3>
 816:	9b 01       	movw	r18, r22
 818:	ac 01       	movw	r20, r24
 81a:	a7 d1       	rcall	.+846    	; 0xb6a <__addsf3>
 81c:	20 e0       	ldi	r18, 0x00	; 0
 81e:	30 e0       	ldi	r19, 0x00	; 0
 820:	44 eb       	ldi	r20, 0xB4	; 180
 822:	53 e4       	ldi	r21, 0x43	; 67
 824:	0a d2       	rcall	.+1044   	; 0xc3a <__divsf3>
 826:	76 d2       	rcall	.+1260   	; 0xd14 <__fixunssfsi>
 828:	70 93 70 02 	sts	0x0270, r23	; 0x800270 <pulse_setpoint+0x1>
 82c:	60 93 6f 02 	sts	0x026F, r22	; 0x80026f <pulse_setpoint>
				pulse_count=0;
 830:	10 92 72 02 	sts	0x0272, r1	; 0x800272 <pulse_count+0x1>
 834:	10 92 71 02 	sts	0x0271, r1	; 0x800271 <pulse_count>
			}
			
		}
	}
}
 838:	ff 91       	pop	r31
 83a:	ef 91       	pop	r30
 83c:	bf 91       	pop	r27
 83e:	af 91       	pop	r26
 840:	9f 91       	pop	r25
 842:	8f 91       	pop	r24
 844:	7f 91       	pop	r23
 846:	6f 91       	pop	r22
 848:	5f 91       	pop	r21
 84a:	4f 91       	pop	r20
 84c:	3f 91       	pop	r19
 84e:	2f 91       	pop	r18
 850:	ff 90       	pop	r15
 852:	ef 90       	pop	r14
 854:	df 90       	pop	r13
 856:	cf 90       	pop	r12
 858:	bf 90       	pop	r11
 85a:	af 90       	pop	r10
 85c:	9f 90       	pop	r9
 85e:	8f 90       	pop	r8
 860:	0f 90       	pop	r0
 862:	0b be       	out	0x3b, r0	; 59
 864:	0f 90       	pop	r0
 866:	0f be       	out	0x3f, r0	; 63
 868:	0f 90       	pop	r0
 86a:	1f 90       	pop	r1
 86c:	18 95       	reti

0000086e <UartTransmitByte>:
	}
	while(1);
	if(negative_flag==1) data=-data;
	// заканчиваем, когда увидели признак \r\n
	return(data);
}
 86e:	e0 ec       	ldi	r30, 0xC0	; 192
 870:	f0 e0       	ldi	r31, 0x00	; 0
 872:	90 81       	ld	r25, Z
 874:	95 ff       	sbrs	r25, 5
 876:	fd cf       	rjmp	.-6      	; 0x872 <UartTransmitByte+0x4>
 878:	80 93 c6 00 	sts	0x00C6, r24	; 0x8000c6 <__TEXT_REGION_LENGTH__+0x7c00c6>
 87c:	08 95       	ret

0000087e <UartSendDec>:
 87e:	ef 92       	push	r14
 880:	ff 92       	push	r15
 882:	0f 93       	push	r16
 884:	1f 93       	push	r17
 886:	cf 93       	push	r28
 888:	df 93       	push	r29
 88a:	7c 01       	movw	r14, r24
 88c:	00 97       	sbiw	r24, 0x00	; 0
 88e:	11 f1       	breq	.+68     	; 0x8d4 <UartSendDec+0x56>
 890:	2c f4       	brge	.+10     	; 0x89c <UartSendDec+0x1e>
 892:	f1 94       	neg	r15
 894:	e1 94       	neg	r14
 896:	f1 08       	sbc	r15, r1
 898:	8d e2       	ldi	r24, 0x2D	; 45
 89a:	e9 df       	rcall	.-46     	; 0x86e <UartTransmitByte>
 89c:	c1 e0       	ldi	r28, 0x01	; 1
 89e:	1e 2d       	mov	r17, r14
 8a0:	df 2d       	mov	r29, r15
 8a2:	01 c0       	rjmp	.+2      	; 0x8a6 <UartSendDec+0x28>
 8a4:	ce 2d       	mov	r28, r14
 8a6:	ee 24       	eor	r14, r14
 8a8:	e3 94       	inc	r14
 8aa:	ec 0e       	add	r14, r28
 8ac:	01 2f       	mov	r16, r17
 8ae:	fd 2e       	mov	r15, r29
 8b0:	6c 2f       	mov	r22, r28
 8b2:	81 2f       	mov	r24, r17
 8b4:	9d 2f       	mov	r25, r29
 8b6:	04 d1       	rcall	.+520    	; 0xac0 <Digit>
 8b8:	88 23       	and	r24, r24
 8ba:	a1 f3       	breq	.-24     	; 0x8a4 <UartSendDec+0x26>
 8bc:	c6 30       	cpi	r28, 0x06	; 6
 8be:	60 f4       	brcc	.+24     	; 0x8d8 <UartSendDec+0x5a>
 8c0:	6c 2f       	mov	r22, r28
 8c2:	80 2f       	mov	r24, r16
 8c4:	9f 2d       	mov	r25, r15
 8c6:	fc d0       	rcall	.+504    	; 0xac0 <Digit>
 8c8:	80 5d       	subi	r24, 0xD0	; 208
 8ca:	d1 df       	rcall	.-94     	; 0x86e <UartTransmitByte>
 8cc:	cf 5f       	subi	r28, 0xFF	; 255
 8ce:	c6 30       	cpi	r28, 0x06	; 6
 8d0:	b9 f7       	brne	.-18     	; 0x8c0 <UartSendDec+0x42>
 8d2:	02 c0       	rjmp	.+4      	; 0x8d8 <UartSendDec+0x5a>
 8d4:	80 e3       	ldi	r24, 0x30	; 48
 8d6:	cb df       	rcall	.-106    	; 0x86e <UartTransmitByte>
 8d8:	df 91       	pop	r29
 8da:	cf 91       	pop	r28
 8dc:	1f 91       	pop	r17
 8de:	0f 91       	pop	r16
 8e0:	ff 90       	pop	r15
 8e2:	ef 90       	pop	r14
 8e4:	08 95       	ret

000008e6 <UartSendStr>:
 8e6:	cf 93       	push	r28
 8e8:	df 93       	push	r29
 8ea:	ec 01       	movw	r28, r24
 8ec:	88 81       	ld	r24, Y
 8ee:	88 23       	and	r24, r24
 8f0:	29 f0       	breq	.+10     	; 0x8fc <UartSendStr+0x16>
 8f2:	21 96       	adiw	r28, 0x01	; 1
 8f4:	bc df       	rcall	.-136    	; 0x86e <UartTransmitByte>
 8f6:	89 91       	ld	r24, Y+
 8f8:	81 11       	cpse	r24, r1
 8fa:	fc cf       	rjmp	.-8      	; 0x8f4 <UartSendStr+0xe>
 8fc:	df 91       	pop	r29
 8fe:	cf 91       	pop	r28
 900:	08 95       	ret

00000902 <UartInit>:

#define INTERRUPTS
/* функци€ инициализации: настройка ћ  на приЄм и передачу данных, 
длина сообщени€ Ц 8 бит, один —“ќѕ бит, без паритета, скорость обмена Ц 19200 бод */
void UartInit(void){
 902:	cf 93       	push	r28
 904:	df 93       	push	r29
 906:	cd b7       	in	r28, 0x3d	; 61
 908:	de b7       	in	r29, 0x3e	; 62
 90a:	28 97       	sbiw	r28, 0x08	; 8
 90c:	0f b6       	in	r0, 0x3f	; 63
 90e:	f8 94       	cli
 910:	de bf       	out	0x3e, r29	; 62
 912:	0f be       	out	0x3f, r0	; 63
 914:	cd bf       	out	0x3d, r28	; 61
	uint8_t word[]={"UART_OK"};
 916:	88 e0       	ldi	r24, 0x08	; 8
 918:	e9 e0       	ldi	r30, 0x09	; 9
 91a:	f2 e0       	ldi	r31, 0x02	; 2
 91c:	de 01       	movw	r26, r28
 91e:	11 96       	adiw	r26, 0x01	; 1
 920:	01 90       	ld	r0, Z+
 922:	0d 92       	st	X+, r0
 924:	8a 95       	dec	r24
 926:	e1 f7       	brne	.-8      	; 0x920 <UartInit+0x1e>
	#ifdef INTERRUPTS
		UCSR0B|=(1<<RXCIE0)|(1<<RXEN0)|(1<<TXEN0);
 928:	e1 ec       	ldi	r30, 0xC1	; 193
 92a:	f0 e0       	ldi	r31, 0x00	; 0
 92c:	80 81       	ld	r24, Z
 92e:	88 69       	ori	r24, 0x98	; 152
 930:	80 83       	st	Z, r24
	#endif
	#ifdef NO_INTERRUPTS
		UCSR0B|=(1<<RXEN0)|(1<<TXEN0);	
	#endif
	UCSR0C|=(1<<UCSZ01)|(1<<UCSZ00);
 932:	e2 ec       	ldi	r30, 0xC2	; 194
 934:	f0 e0       	ldi	r31, 0x00	; 0
 936:	80 81       	ld	r24, Z
 938:	86 60       	ori	r24, 0x06	; 6
 93a:	80 83       	st	Z, r24
	//скорость передачи 19200 бод
	UBRR0H=0;
 93c:	10 92 c5 00 	sts	0x00C5, r1	; 0x8000c5 <__TEXT_REGION_LENGTH__+0x7c00c5>
	//дл€ значени€ UBRR0L = 51 = 0x33	UBRR0L=0x33;
	UBRR0L=0x33;
 940:	83 e3       	ldi	r24, 0x33	; 51
 942:	80 93 c4 00 	sts	0x00C4, r24	; 0x8000c4 <__TEXT_REGION_LENGTH__+0x7c00c4>
	// выводим в терминал слово TEST_OK
	UartSendStr(word);
 946:	ce 01       	movw	r24, r28
 948:	01 96       	adiw	r24, 0x01	; 1
 94a:	cd df       	rcall	.-102    	; 0x8e6 <UartSendStr>
	// переходим в начало следующей строки
	UartTransmitByte('\r');
 94c:	8d e0       	ldi	r24, 0x0D	; 13
 94e:	8f df       	rcall	.-226    	; 0x86e <UartTransmitByte>
}
 950:	28 96       	adiw	r28, 0x08	; 8
 952:	0f b6       	in	r0, 0x3f	; 63
 954:	f8 94       	cli
 956:	de bf       	out	0x3e, r29	; 62
 958:	0f be       	out	0x3f, r0	; 63
 95a:	cd bf       	out	0x3d, r28	; 61
 95c:	df 91       	pop	r29
 95e:	cf 91       	pop	r28
 960:	08 95       	ret

00000962 <UartReceiveData>:

//чтобы работали прерывани€, нужно в UCSR0B в UartInit() выставить бит RXCIE0
float UartReceiveData(void){
	return(angle_received);
 962:	60 91 77 02 	lds	r22, 0x0277	; 0x800277 <angle_received>
 966:	70 91 78 02 	lds	r23, 0x0278	; 0x800278 <angle_received+0x1>
 96a:	80 91 79 02 	lds	r24, 0x0279	; 0x800279 <angle_received+0x2>
 96e:	90 91 7a 02 	lds	r25, 0x027A	; 0x80027a <angle_received+0x3>
}
 972:	08 95       	ret

00000974 <__vector_25>:

ISR(USART0_RX_vect){
 974:	1f 92       	push	r1
 976:	0f 92       	push	r0
 978:	0f b6       	in	r0, 0x3f	; 63
 97a:	0f 92       	push	r0
 97c:	11 24       	eor	r1, r1
 97e:	0b b6       	in	r0, 0x3b	; 59
 980:	0f 92       	push	r0
 982:	cf 92       	push	r12
 984:	df 92       	push	r13
 986:	ef 92       	push	r14
 988:	ff 92       	push	r15
 98a:	2f 93       	push	r18
 98c:	3f 93       	push	r19
 98e:	4f 93       	push	r20
 990:	5f 93       	push	r21
 992:	6f 93       	push	r22
 994:	7f 93       	push	r23
 996:	8f 93       	push	r24
 998:	9f 93       	push	r25
 99a:	af 93       	push	r26
 99c:	bf 93       	push	r27
 99e:	cf 93       	push	r28
 9a0:	ef 93       	push	r30
 9a2:	ff 93       	push	r31
	digit_received=UDR0;
 9a4:	60 91 c6 00 	lds	r22, 0x00C6	; 0x8000c6 <__TEXT_REGION_LENGTH__+0x7c00c6>
 9a8:	60 93 76 02 	sts	0x0276, r22	; 0x800276 <digit_received>
	if(digit_received=='\r') complete_flag=0;
 9ac:	6d 30       	cpi	r22, 0x0D	; 13
 9ae:	19 f4       	brne	.+6      	; 0x9b6 <__vector_25+0x42>
 9b0:	10 92 74 02 	sts	0x0274, r1	; 0x800274 <complete_flag>
 9b4:	11 c0       	rjmp	.+34     	; 0x9d8 <__vector_25+0x64>
	if(digit_received=='\n') complete_flag=1;
 9b6:	6a 30       	cpi	r22, 0x0A	; 10
 9b8:	21 f4       	brne	.+8      	; 0x9c2 <__vector_25+0x4e>
 9ba:	81 e0       	ldi	r24, 0x01	; 1
 9bc:	80 93 74 02 	sts	0x0274, r24	; 0x800274 <complete_flag>
 9c0:	32 c0       	rjmp	.+100    	; 0xa26 <__vector_25+0xb2>
	if(digit_received=='-') negative_flag=1;
 9c2:	6d 32       	cpi	r22, 0x2D	; 45
 9c4:	49 f4       	brne	.+18     	; 0x9d8 <__vector_25+0x64>
 9c6:	81 e0       	ldi	r24, 0x01	; 1
 9c8:	80 93 75 02 	sts	0x0275, r24	; 0x800275 <negative_flag>
	if((digit_received>='0') && (digit_received<='9')){
		digit_received-='0';
		data_received*=10;
		data_received+=digit_received;
	}
	if(complete_flag==1){
 9cc:	80 91 74 02 	lds	r24, 0x0274	; 0x800274 <complete_flag>
 9d0:	81 30       	cpi	r24, 0x01	; 1
 9d2:	09 f0       	breq	.+2      	; 0x9d6 <__vector_25+0x62>
 9d4:	5d c0       	rjmp	.+186    	; 0xa90 <__vector_25+0x11c>
 9d6:	2f c0       	rjmp	.+94     	; 0xa36 <__vector_25+0xc2>
ISR(USART0_RX_vect){
	digit_received=UDR0;
	if(digit_received=='\r') complete_flag=0;
	if(digit_received=='\n') complete_flag=1;
	if(digit_received=='-') negative_flag=1;
	if((digit_received>='0') && (digit_received<='9')){
 9d8:	c0 ed       	ldi	r28, 0xD0	; 208
 9da:	c6 0f       	add	r28, r22
 9dc:	ca 30       	cpi	r28, 0x0A	; 10
 9de:	18 f5       	brcc	.+70     	; 0xa26 <__vector_25+0xb2>
		digit_received-='0';
 9e0:	c0 93 76 02 	sts	0x0276, r28	; 0x800276 <digit_received>
		data_received*=10;
		data_received+=digit_received;
 9e4:	20 e0       	ldi	r18, 0x00	; 0
 9e6:	30 e0       	ldi	r19, 0x00	; 0
 9e8:	40 e2       	ldi	r20, 0x20	; 32
 9ea:	51 e4       	ldi	r21, 0x41	; 65
 9ec:	60 91 7b 02 	lds	r22, 0x027B	; 0x80027b <data_received>
 9f0:	70 91 7c 02 	lds	r23, 0x027C	; 0x80027c <data_received+0x1>
 9f4:	80 91 7d 02 	lds	r24, 0x027D	; 0x80027d <data_received+0x2>
 9f8:	90 91 7e 02 	lds	r25, 0x027E	; 0x80027e <data_received+0x3>
 9fc:	6d d2       	rcall	.+1242   	; 0xed8 <__mulsf3>
 9fe:	6b 01       	movw	r12, r22
 a00:	7c 01       	movw	r14, r24
 a02:	6c 2f       	mov	r22, r28
 a04:	70 e0       	ldi	r23, 0x00	; 0
 a06:	80 e0       	ldi	r24, 0x00	; 0
 a08:	90 e0       	ldi	r25, 0x00	; 0
 a0a:	b2 d1       	rcall	.+868    	; 0xd70 <__floatsisf>
 a0c:	9b 01       	movw	r18, r22
 a0e:	ac 01       	movw	r20, r24
 a10:	c7 01       	movw	r24, r14
 a12:	b6 01       	movw	r22, r12
 a14:	aa d0       	rcall	.+340    	; 0xb6a <__addsf3>
 a16:	60 93 7b 02 	sts	0x027B, r22	; 0x80027b <data_received>
 a1a:	70 93 7c 02 	sts	0x027C, r23	; 0x80027c <data_received+0x1>
 a1e:	80 93 7d 02 	sts	0x027D, r24	; 0x80027d <data_received+0x2>
 a22:	90 93 7e 02 	sts	0x027E, r25	; 0x80027e <data_received+0x3>
	}
	if(complete_flag==1){
 a26:	80 91 74 02 	lds	r24, 0x0274	; 0x800274 <complete_flag>
 a2a:	81 30       	cpi	r24, 0x01	; 1
 a2c:	89 f5       	brne	.+98     	; 0xa90 <__vector_25+0x11c>
		if(negative_flag==1) data_received=-data_received;
 a2e:	80 91 75 02 	lds	r24, 0x0275	; 0x800275 <negative_flag>
 a32:	81 30       	cpi	r24, 0x01	; 1
 a34:	89 f4       	brne	.+34     	; 0xa58 <__vector_25+0xe4>
 a36:	80 91 7b 02 	lds	r24, 0x027B	; 0x80027b <data_received>
 a3a:	90 91 7c 02 	lds	r25, 0x027C	; 0x80027c <data_received+0x1>
 a3e:	a0 91 7d 02 	lds	r26, 0x027D	; 0x80027d <data_received+0x2>
 a42:	b0 91 7e 02 	lds	r27, 0x027E	; 0x80027e <data_received+0x3>
 a46:	b0 58       	subi	r27, 0x80	; 128
 a48:	80 93 7b 02 	sts	0x027B, r24	; 0x80027b <data_received>
 a4c:	90 93 7c 02 	sts	0x027C, r25	; 0x80027c <data_received+0x1>
 a50:	a0 93 7d 02 	sts	0x027D, r26	; 0x80027d <data_received+0x2>
 a54:	b0 93 7e 02 	sts	0x027E, r27	; 0x80027e <data_received+0x3>
		angle_received=data_received;
 a58:	80 91 7b 02 	lds	r24, 0x027B	; 0x80027b <data_received>
 a5c:	90 91 7c 02 	lds	r25, 0x027C	; 0x80027c <data_received+0x1>
 a60:	a0 91 7d 02 	lds	r26, 0x027D	; 0x80027d <data_received+0x2>
 a64:	b0 91 7e 02 	lds	r27, 0x027E	; 0x80027e <data_received+0x3>
 a68:	80 93 77 02 	sts	0x0277, r24	; 0x800277 <angle_received>
 a6c:	90 93 78 02 	sts	0x0278, r25	; 0x800278 <angle_received+0x1>
 a70:	a0 93 79 02 	sts	0x0279, r26	; 0x800279 <angle_received+0x2>
 a74:	b0 93 7a 02 	sts	0x027A, r27	; 0x80027a <angle_received+0x3>
		complete_flag=0;
 a78:	10 92 74 02 	sts	0x0274, r1	; 0x800274 <complete_flag>
		negative_flag=0;
 a7c:	10 92 75 02 	sts	0x0275, r1	; 0x800275 <negative_flag>
		data_received=0;
 a80:	10 92 7b 02 	sts	0x027B, r1	; 0x80027b <data_received>
 a84:	10 92 7c 02 	sts	0x027C, r1	; 0x80027c <data_received+0x1>
 a88:	10 92 7d 02 	sts	0x027D, r1	; 0x80027d <data_received+0x2>
 a8c:	10 92 7e 02 	sts	0x027E, r1	; 0x80027e <data_received+0x3>
	}
}
 a90:	ff 91       	pop	r31
 a92:	ef 91       	pop	r30
 a94:	cf 91       	pop	r28
 a96:	bf 91       	pop	r27
 a98:	af 91       	pop	r26
 a9a:	9f 91       	pop	r25
 a9c:	8f 91       	pop	r24
 a9e:	7f 91       	pop	r23
 aa0:	6f 91       	pop	r22
 aa2:	5f 91       	pop	r21
 aa4:	4f 91       	pop	r20
 aa6:	3f 91       	pop	r19
 aa8:	2f 91       	pop	r18
 aaa:	ff 90       	pop	r15
 aac:	ef 90       	pop	r14
 aae:	df 90       	pop	r13
 ab0:	cf 90       	pop	r12
 ab2:	0f 90       	pop	r0
 ab4:	0b be       	out	0x3b, r0	; 59
 ab6:	0f 90       	pop	r0
 ab8:	0f be       	out	0x3f, r0	; 63
 aba:	0f 90       	pop	r0
 abc:	1f 90       	pop	r1
 abe:	18 95       	reti

00000ac0 <Digit>:
#include "utils.h"

uint8_t Digit(uint16_t d, uint8_t m){
 ac0:	cf 93       	push	r28
 ac2:	f8 2f       	mov	r31, r24
 ac4:	c6 2f       	mov	r28, r22
	uint8_t i=5, a;
	while(i){ //цикл по разр€дам числа
		a=d%10; //выдел€ем очередной разр€д
		//выделен заданный разр€д - уходим
		if(i-- == m) break;
 ac6:	65 30       	cpi	r22, 0x05	; 5
 ac8:	09 f0       	breq	.+2      	; 0xacc <Digit+0xc>
 aca:	3d c0       	rjmp	.+122    	; 0xb46 <Digit+0x86>
#include "utils.h"

uint8_t Digit(uint16_t d, uint8_t m){
	uint8_t i=5, a;
	while(i){ //цикл по разр€дам числа
		a=d%10; //выдел€ем очередной разр€д
 acc:	28 2f       	mov	r18, r24
 ace:	39 2f       	mov	r19, r25
 ad0:	ad ec       	ldi	r26, 0xCD	; 205
 ad2:	bc ec       	ldi	r27, 0xCC	; 204
 ad4:	64 d2       	rcall	.+1224   	; 0xf9e <__umulhisi3>
 ad6:	96 95       	lsr	r25
 ad8:	87 95       	ror	r24
 ada:	96 95       	lsr	r25
 adc:	87 95       	ror	r24
 ade:	96 95       	lsr	r25
 ae0:	87 95       	ror	r24
 ae2:	9c 01       	movw	r18, r24
 ae4:	22 0f       	add	r18, r18
 ae6:	33 1f       	adc	r19, r19
 ae8:	88 0f       	add	r24, r24
 aea:	99 1f       	adc	r25, r25
 aec:	88 0f       	add	r24, r24
 aee:	99 1f       	adc	r25, r25
 af0:	88 0f       	add	r24, r24
 af2:	99 1f       	adc	r25, r25
 af4:	82 0f       	add	r24, r18
 af6:	93 1f       	adc	r25, r19
 af8:	f8 1b       	sub	r31, r24
 afa:	33 c0       	rjmp	.+102    	; 0xb62 <Digit+0xa2>
 afc:	9a 01       	movw	r18, r20
 afe:	ad ec       	ldi	r26, 0xCD	; 205
 b00:	bc ec       	ldi	r27, 0xCC	; 204
 b02:	4d d2       	rcall	.+1178   	; 0xf9e <__umulhisi3>
 b04:	96 95       	lsr	r25
 b06:	87 95       	ror	r24
 b08:	96 95       	lsr	r25
 b0a:	87 95       	ror	r24
 b0c:	96 95       	lsr	r25
 b0e:	87 95       	ror	r24
 b10:	9c 01       	movw	r18, r24
 b12:	22 0f       	add	r18, r18
 b14:	33 1f       	adc	r19, r19
 b16:	88 0f       	add	r24, r24
 b18:	99 1f       	adc	r25, r25
 b1a:	88 0f       	add	r24, r24
 b1c:	99 1f       	adc	r25, r25
 b1e:	88 0f       	add	r24, r24
 b20:	99 1f       	adc	r25, r25
 b22:	82 0f       	add	r24, r18
 b24:	93 1f       	adc	r25, r19
 b26:	f4 2f       	mov	r31, r20
 b28:	f8 1b       	sub	r31, r24
		//выделен заданный разр€д - уходим
		if(i-- == m) break;
 b2a:	ce 17       	cp	r28, r30
		d /= 10; //уменьшаем число в 10 раз
 b2c:	d1 f0       	breq	.+52     	; 0xb62 <Digit+0xa2>
 b2e:	9a 01       	movw	r18, r20
 b30:	36 d2       	rcall	.+1132   	; 0xf9e <__umulhisi3>
 b32:	ac 01       	movw	r20, r24
 b34:	56 95       	lsr	r21
 b36:	47 95       	ror	r20
 b38:	56 95       	lsr	r21
 b3a:	47 95       	ror	r20
 b3c:	56 95       	lsr	r21
 b3e:	47 95       	ror	r20
 b40:	e1 50       	subi	r30, 0x01	; 1
#include "utils.h"

uint8_t Digit(uint16_t d, uint8_t m){
	uint8_t i=5, a;
	while(i){ //цикл по разр€дам числа
 b42:	e1 f6       	brne	.-72     	; 0xafc <Digit+0x3c>
 b44:	0e c0       	rjmp	.+28     	; 0xb62 <Digit+0xa2>
		a=d%10; //выдел€ем очередной разр€д
		//выделен заданный разр€д - уходим
		if(i-- == m) break;
		d /= 10; //уменьшаем число в 10 раз
 b46:	28 2f       	mov	r18, r24
 b48:	39 2f       	mov	r19, r25
 b4a:	ad ec       	ldi	r26, 0xCD	; 205
 b4c:	bc ec       	ldi	r27, 0xCC	; 204
 b4e:	27 d2       	rcall	.+1102   	; 0xf9e <__umulhisi3>
 b50:	ac 01       	movw	r20, r24
 b52:	56 95       	lsr	r21
 b54:	47 95       	ror	r20
 b56:	56 95       	lsr	r21
 b58:	47 95       	ror	r20
 b5a:	56 95       	lsr	r21
 b5c:	47 95       	ror	r20
 b5e:	e4 e0       	ldi	r30, 0x04	; 4
 b60:	cd cf       	rjmp	.-102    	; 0xafc <Digit+0x3c>
	}
	return(a);
}
 b62:	8f 2f       	mov	r24, r31
 b64:	cf 91       	pop	r28
 b66:	08 95       	ret

00000b68 <__subsf3>:
 b68:	50 58       	subi	r21, 0x80	; 128

00000b6a <__addsf3>:
 b6a:	bb 27       	eor	r27, r27
 b6c:	aa 27       	eor	r26, r26
 b6e:	0e d0       	rcall	.+28     	; 0xb8c <__addsf3x>
 b70:	75 c1       	rjmp	.+746    	; 0xe5c <__fp_round>
 b72:	66 d1       	rcall	.+716    	; 0xe40 <__fp_pscA>
 b74:	30 f0       	brcs	.+12     	; 0xb82 <__addsf3+0x18>
 b76:	6b d1       	rcall	.+726    	; 0xe4e <__fp_pscB>
 b78:	20 f0       	brcs	.+8      	; 0xb82 <__addsf3+0x18>
 b7a:	31 f4       	brne	.+12     	; 0xb88 <__addsf3+0x1e>
 b7c:	9f 3f       	cpi	r25, 0xFF	; 255
 b7e:	11 f4       	brne	.+4      	; 0xb84 <__addsf3+0x1a>
 b80:	1e f4       	brtc	.+6      	; 0xb88 <__addsf3+0x1e>
 b82:	5b c1       	rjmp	.+694    	; 0xe3a <__fp_nan>
 b84:	0e f4       	brtc	.+2      	; 0xb88 <__addsf3+0x1e>
 b86:	e0 95       	com	r30
 b88:	e7 fb       	bst	r30, 7
 b8a:	51 c1       	rjmp	.+674    	; 0xe2e <__fp_inf>

00000b8c <__addsf3x>:
 b8c:	e9 2f       	mov	r30, r25
 b8e:	77 d1       	rcall	.+750    	; 0xe7e <__fp_split3>
 b90:	80 f3       	brcs	.-32     	; 0xb72 <__addsf3+0x8>
 b92:	ba 17       	cp	r27, r26
 b94:	62 07       	cpc	r22, r18
 b96:	73 07       	cpc	r23, r19
 b98:	84 07       	cpc	r24, r20
 b9a:	95 07       	cpc	r25, r21
 b9c:	18 f0       	brcs	.+6      	; 0xba4 <__addsf3x+0x18>
 b9e:	71 f4       	brne	.+28     	; 0xbbc <__addsf3x+0x30>
 ba0:	9e f5       	brtc	.+102    	; 0xc08 <__addsf3x+0x7c>
 ba2:	8f c1       	rjmp	.+798    	; 0xec2 <__fp_zero>
 ba4:	0e f4       	brtc	.+2      	; 0xba8 <__addsf3x+0x1c>
 ba6:	e0 95       	com	r30
 ba8:	0b 2e       	mov	r0, r27
 baa:	ba 2f       	mov	r27, r26
 bac:	a0 2d       	mov	r26, r0
 bae:	0b 01       	movw	r0, r22
 bb0:	b9 01       	movw	r22, r18
 bb2:	90 01       	movw	r18, r0
 bb4:	0c 01       	movw	r0, r24
 bb6:	ca 01       	movw	r24, r20
 bb8:	a0 01       	movw	r20, r0
 bba:	11 24       	eor	r1, r1
 bbc:	ff 27       	eor	r31, r31
 bbe:	59 1b       	sub	r21, r25
 bc0:	99 f0       	breq	.+38     	; 0xbe8 <__addsf3x+0x5c>
 bc2:	59 3f       	cpi	r21, 0xF9	; 249
 bc4:	50 f4       	brcc	.+20     	; 0xbda <__addsf3x+0x4e>
 bc6:	50 3e       	cpi	r21, 0xE0	; 224
 bc8:	68 f1       	brcs	.+90     	; 0xc24 <__addsf3x+0x98>
 bca:	1a 16       	cp	r1, r26
 bcc:	f0 40       	sbci	r31, 0x00	; 0
 bce:	a2 2f       	mov	r26, r18
 bd0:	23 2f       	mov	r18, r19
 bd2:	34 2f       	mov	r19, r20
 bd4:	44 27       	eor	r20, r20
 bd6:	58 5f       	subi	r21, 0xF8	; 248
 bd8:	f3 cf       	rjmp	.-26     	; 0xbc0 <__addsf3x+0x34>
 bda:	46 95       	lsr	r20
 bdc:	37 95       	ror	r19
 bde:	27 95       	ror	r18
 be0:	a7 95       	ror	r26
 be2:	f0 40       	sbci	r31, 0x00	; 0
 be4:	53 95       	inc	r21
 be6:	c9 f7       	brne	.-14     	; 0xbda <__addsf3x+0x4e>
 be8:	7e f4       	brtc	.+30     	; 0xc08 <__addsf3x+0x7c>
 bea:	1f 16       	cp	r1, r31
 bec:	ba 0b       	sbc	r27, r26
 bee:	62 0b       	sbc	r22, r18
 bf0:	73 0b       	sbc	r23, r19
 bf2:	84 0b       	sbc	r24, r20
 bf4:	ba f0       	brmi	.+46     	; 0xc24 <__addsf3x+0x98>
 bf6:	91 50       	subi	r25, 0x01	; 1
 bf8:	a1 f0       	breq	.+40     	; 0xc22 <__addsf3x+0x96>
 bfa:	ff 0f       	add	r31, r31
 bfc:	bb 1f       	adc	r27, r27
 bfe:	66 1f       	adc	r22, r22
 c00:	77 1f       	adc	r23, r23
 c02:	88 1f       	adc	r24, r24
 c04:	c2 f7       	brpl	.-16     	; 0xbf6 <__addsf3x+0x6a>
 c06:	0e c0       	rjmp	.+28     	; 0xc24 <__addsf3x+0x98>
 c08:	ba 0f       	add	r27, r26
 c0a:	62 1f       	adc	r22, r18
 c0c:	73 1f       	adc	r23, r19
 c0e:	84 1f       	adc	r24, r20
 c10:	48 f4       	brcc	.+18     	; 0xc24 <__addsf3x+0x98>
 c12:	87 95       	ror	r24
 c14:	77 95       	ror	r23
 c16:	67 95       	ror	r22
 c18:	b7 95       	ror	r27
 c1a:	f7 95       	ror	r31
 c1c:	9e 3f       	cpi	r25, 0xFE	; 254
 c1e:	08 f0       	brcs	.+2      	; 0xc22 <__addsf3x+0x96>
 c20:	b3 cf       	rjmp	.-154    	; 0xb88 <__addsf3+0x1e>
 c22:	93 95       	inc	r25
 c24:	88 0f       	add	r24, r24
 c26:	08 f0       	brcs	.+2      	; 0xc2a <__addsf3x+0x9e>
 c28:	99 27       	eor	r25, r25
 c2a:	ee 0f       	add	r30, r30
 c2c:	97 95       	ror	r25
 c2e:	87 95       	ror	r24
 c30:	08 95       	ret

00000c32 <__cmpsf2>:
 c32:	d9 d0       	rcall	.+434    	; 0xde6 <__fp_cmp>
 c34:	08 f4       	brcc	.+2      	; 0xc38 <__cmpsf2+0x6>
 c36:	81 e0       	ldi	r24, 0x01	; 1
 c38:	08 95       	ret

00000c3a <__divsf3>:
 c3a:	0c d0       	rcall	.+24     	; 0xc54 <__divsf3x>
 c3c:	0f c1       	rjmp	.+542    	; 0xe5c <__fp_round>
 c3e:	07 d1       	rcall	.+526    	; 0xe4e <__fp_pscB>
 c40:	40 f0       	brcs	.+16     	; 0xc52 <__divsf3+0x18>
 c42:	fe d0       	rcall	.+508    	; 0xe40 <__fp_pscA>
 c44:	30 f0       	brcs	.+12     	; 0xc52 <__divsf3+0x18>
 c46:	21 f4       	brne	.+8      	; 0xc50 <__divsf3+0x16>
 c48:	5f 3f       	cpi	r21, 0xFF	; 255
 c4a:	19 f0       	breq	.+6      	; 0xc52 <__divsf3+0x18>
 c4c:	f0 c0       	rjmp	.+480    	; 0xe2e <__fp_inf>
 c4e:	51 11       	cpse	r21, r1
 c50:	39 c1       	rjmp	.+626    	; 0xec4 <__fp_szero>
 c52:	f3 c0       	rjmp	.+486    	; 0xe3a <__fp_nan>

00000c54 <__divsf3x>:
 c54:	14 d1       	rcall	.+552    	; 0xe7e <__fp_split3>
 c56:	98 f3       	brcs	.-26     	; 0xc3e <__divsf3+0x4>

00000c58 <__divsf3_pse>:
 c58:	99 23       	and	r25, r25
 c5a:	c9 f3       	breq	.-14     	; 0xc4e <__divsf3+0x14>
 c5c:	55 23       	and	r21, r21
 c5e:	b1 f3       	breq	.-20     	; 0xc4c <__divsf3+0x12>
 c60:	95 1b       	sub	r25, r21
 c62:	55 0b       	sbc	r21, r21
 c64:	bb 27       	eor	r27, r27
 c66:	aa 27       	eor	r26, r26
 c68:	62 17       	cp	r22, r18
 c6a:	73 07       	cpc	r23, r19
 c6c:	84 07       	cpc	r24, r20
 c6e:	38 f0       	brcs	.+14     	; 0xc7e <__divsf3_pse+0x26>
 c70:	9f 5f       	subi	r25, 0xFF	; 255
 c72:	5f 4f       	sbci	r21, 0xFF	; 255
 c74:	22 0f       	add	r18, r18
 c76:	33 1f       	adc	r19, r19
 c78:	44 1f       	adc	r20, r20
 c7a:	aa 1f       	adc	r26, r26
 c7c:	a9 f3       	breq	.-22     	; 0xc68 <__divsf3_pse+0x10>
 c7e:	33 d0       	rcall	.+102    	; 0xce6 <__divsf3_pse+0x8e>
 c80:	0e 2e       	mov	r0, r30
 c82:	3a f0       	brmi	.+14     	; 0xc92 <__divsf3_pse+0x3a>
 c84:	e0 e8       	ldi	r30, 0x80	; 128
 c86:	30 d0       	rcall	.+96     	; 0xce8 <__divsf3_pse+0x90>
 c88:	91 50       	subi	r25, 0x01	; 1
 c8a:	50 40       	sbci	r21, 0x00	; 0
 c8c:	e6 95       	lsr	r30
 c8e:	00 1c       	adc	r0, r0
 c90:	ca f7       	brpl	.-14     	; 0xc84 <__divsf3_pse+0x2c>
 c92:	29 d0       	rcall	.+82     	; 0xce6 <__divsf3_pse+0x8e>
 c94:	fe 2f       	mov	r31, r30
 c96:	27 d0       	rcall	.+78     	; 0xce6 <__divsf3_pse+0x8e>
 c98:	66 0f       	add	r22, r22
 c9a:	77 1f       	adc	r23, r23
 c9c:	88 1f       	adc	r24, r24
 c9e:	bb 1f       	adc	r27, r27
 ca0:	26 17       	cp	r18, r22
 ca2:	37 07       	cpc	r19, r23
 ca4:	48 07       	cpc	r20, r24
 ca6:	ab 07       	cpc	r26, r27
 ca8:	b0 e8       	ldi	r27, 0x80	; 128
 caa:	09 f0       	breq	.+2      	; 0xcae <__divsf3_pse+0x56>
 cac:	bb 0b       	sbc	r27, r27
 cae:	80 2d       	mov	r24, r0
 cb0:	bf 01       	movw	r22, r30
 cb2:	ff 27       	eor	r31, r31
 cb4:	93 58       	subi	r25, 0x83	; 131
 cb6:	5f 4f       	sbci	r21, 0xFF	; 255
 cb8:	2a f0       	brmi	.+10     	; 0xcc4 <__divsf3_pse+0x6c>
 cba:	9e 3f       	cpi	r25, 0xFE	; 254
 cbc:	51 05       	cpc	r21, r1
 cbe:	68 f0       	brcs	.+26     	; 0xcda <__divsf3_pse+0x82>
 cc0:	b6 c0       	rjmp	.+364    	; 0xe2e <__fp_inf>
 cc2:	00 c1       	rjmp	.+512    	; 0xec4 <__fp_szero>
 cc4:	5f 3f       	cpi	r21, 0xFF	; 255
 cc6:	ec f3       	brlt	.-6      	; 0xcc2 <__divsf3_pse+0x6a>
 cc8:	98 3e       	cpi	r25, 0xE8	; 232
 cca:	dc f3       	brlt	.-10     	; 0xcc2 <__divsf3_pse+0x6a>
 ccc:	86 95       	lsr	r24
 cce:	77 95       	ror	r23
 cd0:	67 95       	ror	r22
 cd2:	b7 95       	ror	r27
 cd4:	f7 95       	ror	r31
 cd6:	9f 5f       	subi	r25, 0xFF	; 255
 cd8:	c9 f7       	brne	.-14     	; 0xccc <__divsf3_pse+0x74>
 cda:	88 0f       	add	r24, r24
 cdc:	91 1d       	adc	r25, r1
 cde:	96 95       	lsr	r25
 ce0:	87 95       	ror	r24
 ce2:	97 f9       	bld	r25, 7
 ce4:	08 95       	ret
 ce6:	e1 e0       	ldi	r30, 0x01	; 1
 ce8:	66 0f       	add	r22, r22
 cea:	77 1f       	adc	r23, r23
 cec:	88 1f       	adc	r24, r24
 cee:	bb 1f       	adc	r27, r27
 cf0:	62 17       	cp	r22, r18
 cf2:	73 07       	cpc	r23, r19
 cf4:	84 07       	cpc	r24, r20
 cf6:	ba 07       	cpc	r27, r26
 cf8:	20 f0       	brcs	.+8      	; 0xd02 <__divsf3_pse+0xaa>
 cfa:	62 1b       	sub	r22, r18
 cfc:	73 0b       	sbc	r23, r19
 cfe:	84 0b       	sbc	r24, r20
 d00:	ba 0b       	sbc	r27, r26
 d02:	ee 1f       	adc	r30, r30
 d04:	88 f7       	brcc	.-30     	; 0xce8 <__divsf3_pse+0x90>
 d06:	e0 95       	com	r30
 d08:	08 95       	ret

00000d0a <__fixsfsi>:
 d0a:	04 d0       	rcall	.+8      	; 0xd14 <__fixunssfsi>
 d0c:	68 94       	set
 d0e:	b1 11       	cpse	r27, r1
 d10:	d9 c0       	rjmp	.+434    	; 0xec4 <__fp_szero>
 d12:	08 95       	ret

00000d14 <__fixunssfsi>:
 d14:	bc d0       	rcall	.+376    	; 0xe8e <__fp_splitA>
 d16:	88 f0       	brcs	.+34     	; 0xd3a <__fixunssfsi+0x26>
 d18:	9f 57       	subi	r25, 0x7F	; 127
 d1a:	90 f0       	brcs	.+36     	; 0xd40 <__fixunssfsi+0x2c>
 d1c:	b9 2f       	mov	r27, r25
 d1e:	99 27       	eor	r25, r25
 d20:	b7 51       	subi	r27, 0x17	; 23
 d22:	a0 f0       	brcs	.+40     	; 0xd4c <__fixunssfsi+0x38>
 d24:	d1 f0       	breq	.+52     	; 0xd5a <__fixunssfsi+0x46>
 d26:	66 0f       	add	r22, r22
 d28:	77 1f       	adc	r23, r23
 d2a:	88 1f       	adc	r24, r24
 d2c:	99 1f       	adc	r25, r25
 d2e:	1a f0       	brmi	.+6      	; 0xd36 <__fixunssfsi+0x22>
 d30:	ba 95       	dec	r27
 d32:	c9 f7       	brne	.-14     	; 0xd26 <__fixunssfsi+0x12>
 d34:	12 c0       	rjmp	.+36     	; 0xd5a <__fixunssfsi+0x46>
 d36:	b1 30       	cpi	r27, 0x01	; 1
 d38:	81 f0       	breq	.+32     	; 0xd5a <__fixunssfsi+0x46>
 d3a:	c3 d0       	rcall	.+390    	; 0xec2 <__fp_zero>
 d3c:	b1 e0       	ldi	r27, 0x01	; 1
 d3e:	08 95       	ret
 d40:	c0 c0       	rjmp	.+384    	; 0xec2 <__fp_zero>
 d42:	67 2f       	mov	r22, r23
 d44:	78 2f       	mov	r23, r24
 d46:	88 27       	eor	r24, r24
 d48:	b8 5f       	subi	r27, 0xF8	; 248
 d4a:	39 f0       	breq	.+14     	; 0xd5a <__fixunssfsi+0x46>
 d4c:	b9 3f       	cpi	r27, 0xF9	; 249
 d4e:	cc f3       	brlt	.-14     	; 0xd42 <__fixunssfsi+0x2e>
 d50:	86 95       	lsr	r24
 d52:	77 95       	ror	r23
 d54:	67 95       	ror	r22
 d56:	b3 95       	inc	r27
 d58:	d9 f7       	brne	.-10     	; 0xd50 <__fixunssfsi+0x3c>
 d5a:	3e f4       	brtc	.+14     	; 0xd6a <__fixunssfsi+0x56>
 d5c:	90 95       	com	r25
 d5e:	80 95       	com	r24
 d60:	70 95       	com	r23
 d62:	61 95       	neg	r22
 d64:	7f 4f       	sbci	r23, 0xFF	; 255
 d66:	8f 4f       	sbci	r24, 0xFF	; 255
 d68:	9f 4f       	sbci	r25, 0xFF	; 255
 d6a:	08 95       	ret

00000d6c <__floatunsisf>:
 d6c:	e8 94       	clt
 d6e:	09 c0       	rjmp	.+18     	; 0xd82 <__floatsisf+0x12>

00000d70 <__floatsisf>:
 d70:	97 fb       	bst	r25, 7
 d72:	3e f4       	brtc	.+14     	; 0xd82 <__floatsisf+0x12>
 d74:	90 95       	com	r25
 d76:	80 95       	com	r24
 d78:	70 95       	com	r23
 d7a:	61 95       	neg	r22
 d7c:	7f 4f       	sbci	r23, 0xFF	; 255
 d7e:	8f 4f       	sbci	r24, 0xFF	; 255
 d80:	9f 4f       	sbci	r25, 0xFF	; 255
 d82:	99 23       	and	r25, r25
 d84:	a9 f0       	breq	.+42     	; 0xdb0 <__floatsisf+0x40>
 d86:	f9 2f       	mov	r31, r25
 d88:	96 e9       	ldi	r25, 0x96	; 150
 d8a:	bb 27       	eor	r27, r27
 d8c:	93 95       	inc	r25
 d8e:	f6 95       	lsr	r31
 d90:	87 95       	ror	r24
 d92:	77 95       	ror	r23
 d94:	67 95       	ror	r22
 d96:	b7 95       	ror	r27
 d98:	f1 11       	cpse	r31, r1
 d9a:	f8 cf       	rjmp	.-16     	; 0xd8c <__floatsisf+0x1c>
 d9c:	fa f4       	brpl	.+62     	; 0xddc <__floatsisf+0x6c>
 d9e:	bb 0f       	add	r27, r27
 da0:	11 f4       	brne	.+4      	; 0xda6 <__floatsisf+0x36>
 da2:	60 ff       	sbrs	r22, 0
 da4:	1b c0       	rjmp	.+54     	; 0xddc <__floatsisf+0x6c>
 da6:	6f 5f       	subi	r22, 0xFF	; 255
 da8:	7f 4f       	sbci	r23, 0xFF	; 255
 daa:	8f 4f       	sbci	r24, 0xFF	; 255
 dac:	9f 4f       	sbci	r25, 0xFF	; 255
 dae:	16 c0       	rjmp	.+44     	; 0xddc <__floatsisf+0x6c>
 db0:	88 23       	and	r24, r24
 db2:	11 f0       	breq	.+4      	; 0xdb8 <__floatsisf+0x48>
 db4:	96 e9       	ldi	r25, 0x96	; 150
 db6:	11 c0       	rjmp	.+34     	; 0xdda <__floatsisf+0x6a>
 db8:	77 23       	and	r23, r23
 dba:	21 f0       	breq	.+8      	; 0xdc4 <__floatsisf+0x54>
 dbc:	9e e8       	ldi	r25, 0x8E	; 142
 dbe:	87 2f       	mov	r24, r23
 dc0:	76 2f       	mov	r23, r22
 dc2:	05 c0       	rjmp	.+10     	; 0xdce <__floatsisf+0x5e>
 dc4:	66 23       	and	r22, r22
 dc6:	71 f0       	breq	.+28     	; 0xde4 <__floatsisf+0x74>
 dc8:	96 e8       	ldi	r25, 0x86	; 134
 dca:	86 2f       	mov	r24, r22
 dcc:	70 e0       	ldi	r23, 0x00	; 0
 dce:	60 e0       	ldi	r22, 0x00	; 0
 dd0:	2a f0       	brmi	.+10     	; 0xddc <__floatsisf+0x6c>
 dd2:	9a 95       	dec	r25
 dd4:	66 0f       	add	r22, r22
 dd6:	77 1f       	adc	r23, r23
 dd8:	88 1f       	adc	r24, r24
 dda:	da f7       	brpl	.-10     	; 0xdd2 <__floatsisf+0x62>
 ddc:	88 0f       	add	r24, r24
 dde:	96 95       	lsr	r25
 de0:	87 95       	ror	r24
 de2:	97 f9       	bld	r25, 7
 de4:	08 95       	ret

00000de6 <__fp_cmp>:
 de6:	99 0f       	add	r25, r25
 de8:	00 08       	sbc	r0, r0
 dea:	55 0f       	add	r21, r21
 dec:	aa 0b       	sbc	r26, r26
 dee:	e0 e8       	ldi	r30, 0x80	; 128
 df0:	fe ef       	ldi	r31, 0xFE	; 254
 df2:	16 16       	cp	r1, r22
 df4:	17 06       	cpc	r1, r23
 df6:	e8 07       	cpc	r30, r24
 df8:	f9 07       	cpc	r31, r25
 dfa:	c0 f0       	brcs	.+48     	; 0xe2c <__fp_cmp+0x46>
 dfc:	12 16       	cp	r1, r18
 dfe:	13 06       	cpc	r1, r19
 e00:	e4 07       	cpc	r30, r20
 e02:	f5 07       	cpc	r31, r21
 e04:	98 f0       	brcs	.+38     	; 0xe2c <__fp_cmp+0x46>
 e06:	62 1b       	sub	r22, r18
 e08:	73 0b       	sbc	r23, r19
 e0a:	84 0b       	sbc	r24, r20
 e0c:	95 0b       	sbc	r25, r21
 e0e:	39 f4       	brne	.+14     	; 0xe1e <__fp_cmp+0x38>
 e10:	0a 26       	eor	r0, r26
 e12:	61 f0       	breq	.+24     	; 0xe2c <__fp_cmp+0x46>
 e14:	23 2b       	or	r18, r19
 e16:	24 2b       	or	r18, r20
 e18:	25 2b       	or	r18, r21
 e1a:	21 f4       	brne	.+8      	; 0xe24 <__fp_cmp+0x3e>
 e1c:	08 95       	ret
 e1e:	0a 26       	eor	r0, r26
 e20:	09 f4       	brne	.+2      	; 0xe24 <__fp_cmp+0x3e>
 e22:	a1 40       	sbci	r26, 0x01	; 1
 e24:	a6 95       	lsr	r26
 e26:	8f ef       	ldi	r24, 0xFF	; 255
 e28:	81 1d       	adc	r24, r1
 e2a:	81 1d       	adc	r24, r1
 e2c:	08 95       	ret

00000e2e <__fp_inf>:
 e2e:	97 f9       	bld	r25, 7
 e30:	9f 67       	ori	r25, 0x7F	; 127
 e32:	80 e8       	ldi	r24, 0x80	; 128
 e34:	70 e0       	ldi	r23, 0x00	; 0
 e36:	60 e0       	ldi	r22, 0x00	; 0
 e38:	08 95       	ret

00000e3a <__fp_nan>:
 e3a:	9f ef       	ldi	r25, 0xFF	; 255
 e3c:	80 ec       	ldi	r24, 0xC0	; 192
 e3e:	08 95       	ret

00000e40 <__fp_pscA>:
 e40:	00 24       	eor	r0, r0
 e42:	0a 94       	dec	r0
 e44:	16 16       	cp	r1, r22
 e46:	17 06       	cpc	r1, r23
 e48:	18 06       	cpc	r1, r24
 e4a:	09 06       	cpc	r0, r25
 e4c:	08 95       	ret

00000e4e <__fp_pscB>:
 e4e:	00 24       	eor	r0, r0
 e50:	0a 94       	dec	r0
 e52:	12 16       	cp	r1, r18
 e54:	13 06       	cpc	r1, r19
 e56:	14 06       	cpc	r1, r20
 e58:	05 06       	cpc	r0, r21
 e5a:	08 95       	ret

00000e5c <__fp_round>:
 e5c:	09 2e       	mov	r0, r25
 e5e:	03 94       	inc	r0
 e60:	00 0c       	add	r0, r0
 e62:	11 f4       	brne	.+4      	; 0xe68 <__fp_round+0xc>
 e64:	88 23       	and	r24, r24
 e66:	52 f0       	brmi	.+20     	; 0xe7c <__fp_round+0x20>
 e68:	bb 0f       	add	r27, r27
 e6a:	40 f4       	brcc	.+16     	; 0xe7c <__fp_round+0x20>
 e6c:	bf 2b       	or	r27, r31
 e6e:	11 f4       	brne	.+4      	; 0xe74 <__fp_round+0x18>
 e70:	60 ff       	sbrs	r22, 0
 e72:	04 c0       	rjmp	.+8      	; 0xe7c <__fp_round+0x20>
 e74:	6f 5f       	subi	r22, 0xFF	; 255
 e76:	7f 4f       	sbci	r23, 0xFF	; 255
 e78:	8f 4f       	sbci	r24, 0xFF	; 255
 e7a:	9f 4f       	sbci	r25, 0xFF	; 255
 e7c:	08 95       	ret

00000e7e <__fp_split3>:
 e7e:	57 fd       	sbrc	r21, 7
 e80:	90 58       	subi	r25, 0x80	; 128
 e82:	44 0f       	add	r20, r20
 e84:	55 1f       	adc	r21, r21
 e86:	59 f0       	breq	.+22     	; 0xe9e <__fp_splitA+0x10>
 e88:	5f 3f       	cpi	r21, 0xFF	; 255
 e8a:	71 f0       	breq	.+28     	; 0xea8 <__fp_splitA+0x1a>
 e8c:	47 95       	ror	r20

00000e8e <__fp_splitA>:
 e8e:	88 0f       	add	r24, r24
 e90:	97 fb       	bst	r25, 7
 e92:	99 1f       	adc	r25, r25
 e94:	61 f0       	breq	.+24     	; 0xeae <__fp_splitA+0x20>
 e96:	9f 3f       	cpi	r25, 0xFF	; 255
 e98:	79 f0       	breq	.+30     	; 0xeb8 <__fp_splitA+0x2a>
 e9a:	87 95       	ror	r24
 e9c:	08 95       	ret
 e9e:	12 16       	cp	r1, r18
 ea0:	13 06       	cpc	r1, r19
 ea2:	14 06       	cpc	r1, r20
 ea4:	55 1f       	adc	r21, r21
 ea6:	f2 cf       	rjmp	.-28     	; 0xe8c <__fp_split3+0xe>
 ea8:	46 95       	lsr	r20
 eaa:	f1 df       	rcall	.-30     	; 0xe8e <__fp_splitA>
 eac:	08 c0       	rjmp	.+16     	; 0xebe <__fp_splitA+0x30>
 eae:	16 16       	cp	r1, r22
 eb0:	17 06       	cpc	r1, r23
 eb2:	18 06       	cpc	r1, r24
 eb4:	99 1f       	adc	r25, r25
 eb6:	f1 cf       	rjmp	.-30     	; 0xe9a <__fp_splitA+0xc>
 eb8:	86 95       	lsr	r24
 eba:	71 05       	cpc	r23, r1
 ebc:	61 05       	cpc	r22, r1
 ebe:	08 94       	sec
 ec0:	08 95       	ret

00000ec2 <__fp_zero>:
 ec2:	e8 94       	clt

00000ec4 <__fp_szero>:
 ec4:	bb 27       	eor	r27, r27
 ec6:	66 27       	eor	r22, r22
 ec8:	77 27       	eor	r23, r23
 eca:	cb 01       	movw	r24, r22
 ecc:	97 f9       	bld	r25, 7
 ece:	08 95       	ret

00000ed0 <__gesf2>:
 ed0:	8a df       	rcall	.-236    	; 0xde6 <__fp_cmp>
 ed2:	08 f4       	brcc	.+2      	; 0xed6 <__gesf2+0x6>
 ed4:	8f ef       	ldi	r24, 0xFF	; 255
 ed6:	08 95       	ret

00000ed8 <__mulsf3>:
 ed8:	0b d0       	rcall	.+22     	; 0xef0 <__mulsf3x>
 eda:	c0 cf       	rjmp	.-128    	; 0xe5c <__fp_round>
 edc:	b1 df       	rcall	.-158    	; 0xe40 <__fp_pscA>
 ede:	28 f0       	brcs	.+10     	; 0xeea <__mulsf3+0x12>
 ee0:	b6 df       	rcall	.-148    	; 0xe4e <__fp_pscB>
 ee2:	18 f0       	brcs	.+6      	; 0xeea <__mulsf3+0x12>
 ee4:	95 23       	and	r25, r21
 ee6:	09 f0       	breq	.+2      	; 0xeea <__mulsf3+0x12>
 ee8:	a2 cf       	rjmp	.-188    	; 0xe2e <__fp_inf>
 eea:	a7 cf       	rjmp	.-178    	; 0xe3a <__fp_nan>
 eec:	11 24       	eor	r1, r1
 eee:	ea cf       	rjmp	.-44     	; 0xec4 <__fp_szero>

00000ef0 <__mulsf3x>:
 ef0:	c6 df       	rcall	.-116    	; 0xe7e <__fp_split3>
 ef2:	a0 f3       	brcs	.-24     	; 0xedc <__mulsf3+0x4>

00000ef4 <__mulsf3_pse>:
 ef4:	95 9f       	mul	r25, r21
 ef6:	d1 f3       	breq	.-12     	; 0xeec <__mulsf3+0x14>
 ef8:	95 0f       	add	r25, r21
 efa:	50 e0       	ldi	r21, 0x00	; 0
 efc:	55 1f       	adc	r21, r21
 efe:	62 9f       	mul	r22, r18
 f00:	f0 01       	movw	r30, r0
 f02:	72 9f       	mul	r23, r18
 f04:	bb 27       	eor	r27, r27
 f06:	f0 0d       	add	r31, r0
 f08:	b1 1d       	adc	r27, r1
 f0a:	63 9f       	mul	r22, r19
 f0c:	aa 27       	eor	r26, r26
 f0e:	f0 0d       	add	r31, r0
 f10:	b1 1d       	adc	r27, r1
 f12:	aa 1f       	adc	r26, r26
 f14:	64 9f       	mul	r22, r20
 f16:	66 27       	eor	r22, r22
 f18:	b0 0d       	add	r27, r0
 f1a:	a1 1d       	adc	r26, r1
 f1c:	66 1f       	adc	r22, r22
 f1e:	82 9f       	mul	r24, r18
 f20:	22 27       	eor	r18, r18
 f22:	b0 0d       	add	r27, r0
 f24:	a1 1d       	adc	r26, r1
 f26:	62 1f       	adc	r22, r18
 f28:	73 9f       	mul	r23, r19
 f2a:	b0 0d       	add	r27, r0
 f2c:	a1 1d       	adc	r26, r1
 f2e:	62 1f       	adc	r22, r18
 f30:	83 9f       	mul	r24, r19
 f32:	a0 0d       	add	r26, r0
 f34:	61 1d       	adc	r22, r1
 f36:	22 1f       	adc	r18, r18
 f38:	74 9f       	mul	r23, r20
 f3a:	33 27       	eor	r19, r19
 f3c:	a0 0d       	add	r26, r0
 f3e:	61 1d       	adc	r22, r1
 f40:	23 1f       	adc	r18, r19
 f42:	84 9f       	mul	r24, r20
 f44:	60 0d       	add	r22, r0
 f46:	21 1d       	adc	r18, r1
 f48:	82 2f       	mov	r24, r18
 f4a:	76 2f       	mov	r23, r22
 f4c:	6a 2f       	mov	r22, r26
 f4e:	11 24       	eor	r1, r1
 f50:	9f 57       	subi	r25, 0x7F	; 127
 f52:	50 40       	sbci	r21, 0x00	; 0
 f54:	8a f0       	brmi	.+34     	; 0xf78 <__mulsf3_pse+0x84>
 f56:	e1 f0       	breq	.+56     	; 0xf90 <__mulsf3_pse+0x9c>
 f58:	88 23       	and	r24, r24
 f5a:	4a f0       	brmi	.+18     	; 0xf6e <__mulsf3_pse+0x7a>
 f5c:	ee 0f       	add	r30, r30
 f5e:	ff 1f       	adc	r31, r31
 f60:	bb 1f       	adc	r27, r27
 f62:	66 1f       	adc	r22, r22
 f64:	77 1f       	adc	r23, r23
 f66:	88 1f       	adc	r24, r24
 f68:	91 50       	subi	r25, 0x01	; 1
 f6a:	50 40       	sbci	r21, 0x00	; 0
 f6c:	a9 f7       	brne	.-22     	; 0xf58 <__mulsf3_pse+0x64>
 f6e:	9e 3f       	cpi	r25, 0xFE	; 254
 f70:	51 05       	cpc	r21, r1
 f72:	70 f0       	brcs	.+28     	; 0xf90 <__mulsf3_pse+0x9c>
 f74:	5c cf       	rjmp	.-328    	; 0xe2e <__fp_inf>
 f76:	a6 cf       	rjmp	.-180    	; 0xec4 <__fp_szero>
 f78:	5f 3f       	cpi	r21, 0xFF	; 255
 f7a:	ec f3       	brlt	.-6      	; 0xf76 <__mulsf3_pse+0x82>
 f7c:	98 3e       	cpi	r25, 0xE8	; 232
 f7e:	dc f3       	brlt	.-10     	; 0xf76 <__mulsf3_pse+0x82>
 f80:	86 95       	lsr	r24
 f82:	77 95       	ror	r23
 f84:	67 95       	ror	r22
 f86:	b7 95       	ror	r27
 f88:	f7 95       	ror	r31
 f8a:	e7 95       	ror	r30
 f8c:	9f 5f       	subi	r25, 0xFF	; 255
 f8e:	c1 f7       	brne	.-16     	; 0xf80 <__mulsf3_pse+0x8c>
 f90:	fe 2b       	or	r31, r30
 f92:	88 0f       	add	r24, r24
 f94:	91 1d       	adc	r25, r1
 f96:	96 95       	lsr	r25
 f98:	87 95       	ror	r24
 f9a:	97 f9       	bld	r25, 7
 f9c:	08 95       	ret

00000f9e <__umulhisi3>:
 f9e:	a2 9f       	mul	r26, r18
 fa0:	b0 01       	movw	r22, r0
 fa2:	b3 9f       	mul	r27, r19
 fa4:	c0 01       	movw	r24, r0
 fa6:	a3 9f       	mul	r26, r19
 fa8:	70 0d       	add	r23, r0
 faa:	81 1d       	adc	r24, r1
 fac:	11 24       	eor	r1, r1
 fae:	91 1d       	adc	r25, r1
 fb0:	b2 9f       	mul	r27, r18
 fb2:	70 0d       	add	r23, r0
 fb4:	81 1d       	adc	r24, r1
 fb6:	11 24       	eor	r1, r1
 fb8:	91 1d       	adc	r25, r1
 fba:	08 95       	ret

00000fbc <_exit>:
 fbc:	f8 94       	cli

00000fbe <__stop_program>:
 fbe:	ff cf       	rjmp	.-2      	; 0xfbe <__stop_program>
