   1               		.file	"time.cpp"
   2               	__SP_H__ = 0x3e
   3               	__SP_L__ = 0x3d
   4               	__SREG__ = 0x3f
   5               	__RAMPZ__ = 0x3b
   6               	__tmp_reg__ = 0
   7               	__zero_reg__ = 1
   8               		.text
   9               	.Ltext0:
  10               		.cfi_sections	.debug_frame
  11               	.global	_ZN3ros16normalizeSecNSecERmS0_
  13               	_ZN3ros16normalizeSecNSecERmS0_:
  14               	.LFB19:
  15               		.file 1 "ros_lib/time.cpp"
   1:ros_lib/time.cpp **** /*
   2:ros_lib/time.cpp ****  * Software License Agreement (BSD License)
   3:ros_lib/time.cpp ****  *
   4:ros_lib/time.cpp ****  * Copyright (c) 2011, Willow Garage, Inc.
   5:ros_lib/time.cpp ****  * All rights reserved.
   6:ros_lib/time.cpp ****  *
   7:ros_lib/time.cpp ****  * Redistribution and use in source and binary forms, with or without
   8:ros_lib/time.cpp ****  * modification, are permitted provided that the following conditions
   9:ros_lib/time.cpp ****  * are met:
  10:ros_lib/time.cpp ****  *
  11:ros_lib/time.cpp ****  *  * Redistributions of source code must retain the above copyright
  12:ros_lib/time.cpp ****  *    notice, this list of conditions and the following disclaimer.
  13:ros_lib/time.cpp ****  *  * Redistributions in binary form must reproduce the above
  14:ros_lib/time.cpp ****  *    copyright notice, this list of conditions and the following
  15:ros_lib/time.cpp ****  *    disclaimer in the documentation and/or other materials provided
  16:ros_lib/time.cpp ****  *    with the distribution.
  17:ros_lib/time.cpp ****  *  * Neither the name of Willow Garage, Inc. nor the names of its
  18:ros_lib/time.cpp ****  *    contributors may be used to endorse or promote prducts derived
  19:ros_lib/time.cpp ****  *    from this software without specific prior written permission.
  20:ros_lib/time.cpp ****  *
  21:ros_lib/time.cpp ****  * THIS SOFTWARE IS PROVIDED BY THE COPYRIGHT HOLDERS AND CONTRIBUTORS
  22:ros_lib/time.cpp ****  * "AS IS" AND ANY EXPRESS OR IMPLIED WARRANTIES, INCLUDING, BUT NOT
  23:ros_lib/time.cpp ****  * LIMITED TO, THE IMPLIED WARRANTIES OF MERCHANTABILITY AND FITNESS
  24:ros_lib/time.cpp ****  * FOR A PARTICULAR PURPOSE ARE DISCLAIMED. IN NO EVENT SHALL THE
  25:ros_lib/time.cpp ****  * COPYRIGHT OWNER OR CONTRIBUTORS BE LIABLE FOR ANY DIRECT, INDIRECT,
  26:ros_lib/time.cpp ****  * INCIDENTAL, SPECIAL, EXEMPLARY, OR CONSEQUENTIAL DAMAGES (INCLUDING,
  27:ros_lib/time.cpp ****  * BUT NOT LIMITED TO, PROCUREMENT OF SUBSTITUTE GOODS OR SERVICES;
  28:ros_lib/time.cpp ****  * LOSS OF USE, DATA, OR PROFITS; OR BUSINESS INTERRUPTION) HOWEVER
  29:ros_lib/time.cpp ****  * CAUSED AND ON ANY THEORY OF LIABILITY, WHETHER IN CONTRACT, STRICT
  30:ros_lib/time.cpp ****  * LIABILITY, OR TORT (INCLUDING NEGLIGENCE OR OTHERWISE) ARISING IN
  31:ros_lib/time.cpp ****  * ANY WAY OUT OF THE USE OF THIS SOFTWARE, EVEN IF ADVISED OF THE
  32:ros_lib/time.cpp ****  * POSSIBILITY OF SUCH DAMAGE.
  33:ros_lib/time.cpp ****  */
  34:ros_lib/time.cpp **** 
  35:ros_lib/time.cpp **** #include "ros/time.h"
  36:ros_lib/time.cpp **** 
  37:ros_lib/time.cpp **** namespace ros
  38:ros_lib/time.cpp **** {
  39:ros_lib/time.cpp **** void normalizeSecNSec(uint32_t& sec, uint32_t& nsec)
  40:ros_lib/time.cpp **** {
  16               		.loc 1 40 0
  17               		.cfi_startproc
  18               	.LVL0:
  19 0000 CF92      		push r12
  20               	.LCFI0:
  21               		.cfi_def_cfa_offset 4
  22               		.cfi_offset 12, -3
  23 0002 DF92      		push r13
  24               	.LCFI1:
  25               		.cfi_def_cfa_offset 5
  26               		.cfi_offset 13, -4
  27 0004 EF92      		push r14
  28               	.LCFI2:
  29               		.cfi_def_cfa_offset 6
  30               		.cfi_offset 14, -5
  31 0006 FF92      		push r15
  32               	.LCFI3:
  33               		.cfi_def_cfa_offset 7
  34               		.cfi_offset 15, -6
  35 0008 0F93      		push r16
  36               	.LCFI4:
  37               		.cfi_def_cfa_offset 8
  38               		.cfi_offset 16, -7
  39 000a 1F93      		push r17
  40               	.LCFI5:
  41               		.cfi_def_cfa_offset 9
  42               		.cfi_offset 17, -8
  43 000c CF93      		push r28
  44               	.LCFI6:
  45               		.cfi_def_cfa_offset 10
  46               		.cfi_offset 28, -9
  47 000e DF93      		push r29
  48               	.LCFI7:
  49               		.cfi_def_cfa_offset 11
  50               		.cfi_offset 29, -10
  51               	/* prologue: function */
  52               	/* frame size = 0 */
  53               	/* stack size = 8 */
  54               	.L__stack_usage = 8
  55 0010 8C01      		movw r16,r24
  56 0012 EB01      		movw r28,r22
  41:ros_lib/time.cpp ****   uint32_t nsec_part = nsec % 1000000000UL;
  57               		.loc 1 41 0
  58 0014 6881      		ld r22,Y
  59 0016 7981      		ldd r23,Y+1
  60 0018 8A81      		ldd r24,Y+2
  61 001a 9B81      		ldd r25,Y+3
  62               	.LVL1:
  42:ros_lib/time.cpp ****   uint32_t sec_part = nsec / 1000000000UL;
  43:ros_lib/time.cpp ****   sec += sec_part;
  63               		.loc 1 43 0
  64 001c 20E0      		ldi r18,0
  65 001e 3AEC      		ldi r19,lo8(-54)
  66 0020 4AE9      		ldi r20,lo8(-102)
  67 0022 5BE3      		ldi r21,lo8(59)
  68 0024 0E94 0000 		call __udivmodsi4
  69               	.LVL2:
  70 0028 F801      		movw r30,r16
  71 002a C080      		ld r12,Z
  72 002c D180      		ldd r13,Z+1
  73 002e E280      		ldd r14,Z+2
  74 0030 F380      		ldd r15,Z+3
  75 0032 C20E      		add r12,r18
  76 0034 D31E      		adc r13,r19
  77 0036 E41E      		adc r14,r20
  78 0038 F51E      		adc r15,r21
  79 003a C082      		st Z,r12
  80 003c D182      		std Z+1,r13
  81 003e E282      		std Z+2,r14
  82 0040 F382      		std Z+3,r15
  44:ros_lib/time.cpp ****   nsec = nsec_part;
  83               		.loc 1 44 0
  84 0042 6883      		st Y,r22
  85 0044 7983      		std Y+1,r23
  86 0046 8A83      		std Y+2,r24
  87 0048 9B83      		std Y+3,r25
  88               	/* epilogue start */
  45:ros_lib/time.cpp **** }
  89               		.loc 1 45 0
  90 004a DF91      		pop r29
  91 004c CF91      		pop r28
  92               	.LVL3:
  93 004e 1F91      		pop r17
  94 0050 0F91      		pop r16
  95 0052 FF90      		pop r15
  96 0054 EF90      		pop r14
  97 0056 DF90      		pop r13
  98 0058 CF90      		pop r12
  99 005a 0895      		ret
 100               		.cfi_endproc
 101               	.LFE19:
 103               	.global	_ZN3ros4Time8fromNSecEl
 105               	_ZN3ros4Time8fromNSecEl:
 106               	.LFB20:
  46:ros_lib/time.cpp **** 
  47:ros_lib/time.cpp **** Time& Time::fromNSec(int32_t t)
  48:ros_lib/time.cpp **** {
 107               		.loc 1 48 0
 108               		.cfi_startproc
 109               	.LVL4:
 110 005c CF93      		push r28
 111               	.LCFI8:
 112               		.cfi_def_cfa_offset 4
 113               		.cfi_offset 28, -3
 114 005e DF93      		push r29
 115               	.LCFI9:
 116               		.cfi_def_cfa_offset 5
 117               		.cfi_offset 29, -4
 118               	/* prologue: function */
 119               	/* frame size = 0 */
 120               	/* stack size = 2 */
 121               	.L__stack_usage = 2
 122 0060 EC01      		movw r28,r24
  49:ros_lib/time.cpp ****   sec = t / 1000000000;
 123               		.loc 1 49 0
 124 0062 CB01      		movw r24,r22
 125 0064 BA01      		movw r22,r20
 126 0066 20E0      		ldi r18,0
 127 0068 3AEC      		ldi r19,lo8(-54)
 128 006a 4AE9      		ldi r20,lo8(-102)
 129 006c 5BE3      		ldi r21,lo8(59)
 130 006e 0E94 0000 		call __divmodsi4
 131 0072 2883      		st Y,r18
 132 0074 3983      		std Y+1,r19
 133 0076 4A83      		std Y+2,r20
 134 0078 5B83      		std Y+3,r21
  50:ros_lib/time.cpp ****   nsec = t % 1000000000;
 135               		.loc 1 50 0
 136 007a 6C83      		std Y+4,r22
 137 007c 7D83      		std Y+5,r23
 138 007e 8E83      		std Y+6,r24
 139 0080 9F83      		std Y+7,r25
  51:ros_lib/time.cpp ****   normalizeSecNSec(sec, nsec);
 140               		.loc 1 51 0
 141 0082 BE01      		movw r22,r28
 142 0084 6C5F      		subi r22,-4
 143 0086 7F4F      		sbci r23,-1
 144 0088 CE01      		movw r24,r28
 145 008a 0E94 0000 		call _ZN3ros16normalizeSecNSecERmS0_
 146               	.LVL5:
  52:ros_lib/time.cpp ****   return *this;
  53:ros_lib/time.cpp **** }
 147               		.loc 1 53 0
 148 008e CE01      		movw r24,r28
 149               	/* epilogue start */
 150 0090 DF91      		pop r29
 151 0092 CF91      		pop r28
 152               	.LVL6:
 153 0094 0895      		ret
 154               		.cfi_endproc
 155               	.LFE20:
 157               	.global	_ZN3ros4TimepLERKNS_8DurationE
 159               	_ZN3ros4TimepLERKNS_8DurationE:
 160               	.LFB21:
  54:ros_lib/time.cpp **** 
  55:ros_lib/time.cpp **** Time& Time::operator +=(const Duration &rhs)
  56:ros_lib/time.cpp **** {
 161               		.loc 1 56 0
 162               		.cfi_startproc
 163               	.LVL7:
 164 0096 0F93      		push r16
 165               	.LCFI10:
 166               		.cfi_def_cfa_offset 4
 167               		.cfi_offset 16, -3
 168 0098 1F93      		push r17
 169               	.LCFI11:
 170               		.cfi_def_cfa_offset 5
 171               		.cfi_offset 17, -4
 172 009a CF93      		push r28
 173               	.LCFI12:
 174               		.cfi_def_cfa_offset 6
 175               		.cfi_offset 28, -5
 176 009c DF93      		push r29
 177               	.LCFI13:
 178               		.cfi_def_cfa_offset 7
 179               		.cfi_offset 29, -6
 180               	/* prologue: function */
 181               	/* frame size = 0 */
 182               	/* stack size = 4 */
 183               	.L__stack_usage = 4
 184 009e EC01      		movw r28,r24
  57:ros_lib/time.cpp ****   sec = sec - 1 + rhs.sec;
 185               		.loc 1 57 0
 186 00a0 8881      		ld r24,Y
 187 00a2 9981      		ldd r25,Y+1
 188 00a4 AA81      		ldd r26,Y+2
 189 00a6 BB81      		ldd r27,Y+3
 190               	.LVL8:
 191 00a8 0197      		sbiw r24,1
 192 00aa A109      		sbc r26,__zero_reg__
 193 00ac B109      		sbc r27,__zero_reg__
 194 00ae FB01      		movw r30,r22
 195 00b0 0081      		ld r16,Z
 196 00b2 1181      		ldd r17,Z+1
 197 00b4 2281      		ldd r18,Z+2
 198 00b6 3381      		ldd r19,Z+3
 199 00b8 800F      		add r24,r16
 200 00ba 911F      		adc r25,r17
 201 00bc A21F      		adc r26,r18
 202 00be B31F      		adc r27,r19
 203 00c0 8883      		st Y,r24
 204 00c2 9983      		std Y+1,r25
 205 00c4 AA83      		std Y+2,r26
 206 00c6 BB83      		std Y+3,r27
  58:ros_lib/time.cpp ****   nsec = nsec + 1000000000UL + rhs.nsec;
 207               		.loc 1 58 0
 208 00c8 8C81      		ldd r24,Y+4
 209 00ca 9D81      		ldd r25,Y+5
 210 00cc AE81      		ldd r26,Y+6
 211 00ce BF81      		ldd r27,Y+7
 212 00d0 9653      		subi r25,54
 213 00d2 A546      		sbci r26,101
 214 00d4 B44C      		sbci r27,-60
 215 00d6 4481      		ldd r20,Z+4
 216 00d8 5581      		ldd r21,Z+5
 217 00da 6681      		ldd r22,Z+6
 218 00dc 7781      		ldd r23,Z+7
 219 00de 840F      		add r24,r20
 220 00e0 951F      		adc r25,r21
 221 00e2 A61F      		adc r26,r22
 222 00e4 B71F      		adc r27,r23
 223 00e6 8C83      		std Y+4,r24
 224 00e8 9D83      		std Y+5,r25
 225 00ea AE83      		std Y+6,r26
 226 00ec BF83      		std Y+7,r27
  59:ros_lib/time.cpp ****   normalizeSecNSec(sec, nsec);
 227               		.loc 1 59 0
 228 00ee BE01      		movw r22,r28
 229               	.LVL9:
 230 00f0 6C5F      		subi r22,-4
 231 00f2 7F4F      		sbci r23,-1
 232 00f4 CE01      		movw r24,r28
 233 00f6 0E94 0000 		call _ZN3ros16normalizeSecNSecERmS0_
 234               	.LVL10:
  60:ros_lib/time.cpp ****   return *this;
  61:ros_lib/time.cpp **** }
 235               		.loc 1 61 0
 236 00fa CE01      		movw r24,r28
 237               	/* epilogue start */
 238 00fc DF91      		pop r29
 239 00fe CF91      		pop r28
 240               	.LVL11:
 241 0100 1F91      		pop r17
 242 0102 0F91      		pop r16
 243 0104 0895      		ret
 244               		.cfi_endproc
 245               	.LFE21:
 247               	.global	_ZN3ros4TimemIERKNS_8DurationE
 249               	_ZN3ros4TimemIERKNS_8DurationE:
 250               	.LFB22:
  62:ros_lib/time.cpp **** 
  63:ros_lib/time.cpp **** Time& Time::operator -=(const Duration &rhs){
 251               		.loc 1 63 0
 252               		.cfi_startproc
 253               	.LVL12:
 254 0106 0F93      		push r16
 255               	.LCFI14:
 256               		.cfi_def_cfa_offset 4
 257               		.cfi_offset 16, -3
 258 0108 1F93      		push r17
 259               	.LCFI15:
 260               		.cfi_def_cfa_offset 5
 261               		.cfi_offset 17, -4
 262 010a CF93      		push r28
 263               	.LCFI16:
 264               		.cfi_def_cfa_offset 6
 265               		.cfi_offset 28, -5
 266 010c DF93      		push r29
 267               	.LCFI17:
 268               		.cfi_def_cfa_offset 7
 269               		.cfi_offset 29, -6
 270               	/* prologue: function */
 271               	/* frame size = 0 */
 272               	/* stack size = 4 */
 273               	.L__stack_usage = 4
 274 010e EC01      		movw r28,r24
  64:ros_lib/time.cpp ****   sec = sec - 1 - rhs.sec;
 275               		.loc 1 64 0
 276 0110 8881      		ld r24,Y
 277 0112 9981      		ldd r25,Y+1
 278 0114 AA81      		ldd r26,Y+2
 279 0116 BB81      		ldd r27,Y+3
 280               	.LVL13:
 281 0118 0197      		sbiw r24,1
 282 011a A109      		sbc r26,__zero_reg__
 283 011c B109      		sbc r27,__zero_reg__
 284 011e FB01      		movw r30,r22
 285 0120 0081      		ld r16,Z
 286 0122 1181      		ldd r17,Z+1
 287 0124 2281      		ldd r18,Z+2
 288 0126 3381      		ldd r19,Z+3
 289 0128 801B      		sub r24,r16
 290 012a 910B      		sbc r25,r17
 291 012c A20B      		sbc r26,r18
 292 012e B30B      		sbc r27,r19
 293 0130 8883      		st Y,r24
 294 0132 9983      		std Y+1,r25
 295 0134 AA83      		std Y+2,r26
 296 0136 BB83      		std Y+3,r27
  65:ros_lib/time.cpp ****   nsec = nsec + 1000000000UL - rhs.nsec;
 297               		.loc 1 65 0
 298 0138 8C81      		ldd r24,Y+4
 299 013a 9D81      		ldd r25,Y+5
 300 013c AE81      		ldd r26,Y+6
 301 013e BF81      		ldd r27,Y+7
 302 0140 9653      		subi r25,54
 303 0142 A546      		sbci r26,101
 304 0144 B44C      		sbci r27,-60
 305 0146 4481      		ldd r20,Z+4
 306 0148 5581      		ldd r21,Z+5
 307 014a 6681      		ldd r22,Z+6
 308 014c 7781      		ldd r23,Z+7
 309 014e 841B      		sub r24,r20
 310 0150 950B      		sbc r25,r21
 311 0152 A60B      		sbc r26,r22
 312 0154 B70B      		sbc r27,r23
 313 0156 8C83      		std Y+4,r24
 314 0158 9D83      		std Y+5,r25
 315 015a AE83      		std Y+6,r26
 316 015c BF83      		std Y+7,r27
  66:ros_lib/time.cpp ****   normalizeSecNSec(sec, nsec);
 317               		.loc 1 66 0
 318 015e BE01      		movw r22,r28
 319               	.LVL14:
 320 0160 6C5F      		subi r22,-4
 321 0162 7F4F      		sbci r23,-1
 322 0164 CE01      		movw r24,r28
 323 0166 0E94 0000 		call _ZN3ros16normalizeSecNSecERmS0_
 324               	.LVL15:
  67:ros_lib/time.cpp ****   return *this;
  68:ros_lib/time.cpp **** }
 325               		.loc 1 68 0
 326 016a CE01      		movw r24,r28
 327               	/* epilogue start */
 328 016c DF91      		pop r29
 329 016e CF91      		pop r28
 330               	.LVL16:
 331 0170 1F91      		pop r17
 332 0172 0F91      		pop r16
 333 0174 0895      		ret
 334               		.cfi_endproc
 335               	.LFE22:
 337               	.global	_ZNK3ros4TimemiERKS0_
 339               	_ZNK3ros4TimemiERKS0_:
 340               	.LFB23:
  69:ros_lib/time.cpp **** 
  70:ros_lib/time.cpp **** Duration Time::operator-(const Time &rhs) const {
 341               		.loc 1 70 0
 342               		.cfi_startproc
 343               	.LVL17:
 344 0176 0F93      		push r16
 345               	.LCFI18:
 346               		.cfi_def_cfa_offset 4
 347               		.cfi_offset 16, -3
 348 0178 1F93      		push r17
 349               	.LCFI19:
 350               		.cfi_def_cfa_offset 5
 351               		.cfi_offset 17, -4
 352 017a CF93      		push r28
 353               	.LCFI20:
 354               		.cfi_def_cfa_offset 6
 355               		.cfi_offset 28, -5
 356 017c DF93      		push r29
 357               	.LCFI21:
 358               		.cfi_def_cfa_offset 7
 359               		.cfi_offset 29, -6
 360 017e CDB7      		in r28,__SP_L__
 361 0180 DEB7      		in r29,__SP_H__
 362               	.LCFI22:
 363               		.cfi_def_cfa_register 28
 364 0182 6097      		sbiw r28,16
 365               	.LCFI23:
 366               		.cfi_def_cfa_offset 23
 367 0184 0FB6      		in __tmp_reg__,__SREG__
 368 0186 F894      		cli
 369 0188 DEBF      		out __SP_H__,r29
 370 018a 0FBE      		out __SREG__,__tmp_reg__
 371 018c CDBF      		out __SP_L__,r28
 372               	/* prologue: function */
 373               	/* frame size = 16 */
 374               	/* stack size = 20 */
 375               	.L__stack_usage = 20
 376 018e FB01      		movw r30,r22
  71:ros_lib/time.cpp ****   // Note: Considers wrap around as a continuation of time, e.g.,
  72:ros_lib/time.cpp ****   // (0,0) - (0xFFFFFFFF, 0) = (1, 0)
  73:ros_lib/time.cpp ****   Duration d;
  74:ros_lib/time.cpp ****   d.sec = sec > rhs.sec ? sec - rhs.sec : -(rhs.sec - sec);
 377               		.loc 1 74 0
 378 0190 DC01      		movw r26,r24
 379 0192 4D91      		ld r20,X+
 380 0194 5D91      		ld r21,X+
 381 0196 6D91      		ld r22,X+
 382 0198 7C91      		ld r23,X
 383 019a 1397      		sbiw r26,3
 384 019c 0081      		ld r16,Z
 385 019e 1181      		ldd r17,Z+1
 386 01a0 2281      		ldd r18,Z+2
 387 01a2 3381      		ldd r19,Z+3
 388 01a4 401B      		sub r20,r16
 389 01a6 510B      		sbc r21,r17
 390 01a8 620B      		sbc r22,r18
 391 01aa 730B      		sbc r23,r19
 392 01ac 4987      		std Y+9,r20
 393 01ae 5A87      		std Y+10,r21
 394 01b0 6B87      		std Y+11,r22
 395 01b2 7C87      		std Y+12,r23
  75:ros_lib/time.cpp ****   d.nsec = nsec > rhs.nsec ? nsec - rhs.nsec : -(rhs.nsec - nsec);
 396               		.loc 1 75 0
 397 01b4 1496      		adiw r26,4
 398 01b6 0D91      		ld r16,X+
 399 01b8 1D91      		ld r17,X+
 400 01ba 2D91      		ld r18,X+
 401 01bc 3C91      		ld r19,X
 402 01be 1797      		sbiw r26,4+3
 403 01c0 4481      		ldd r20,Z+4
 404 01c2 5581      		ldd r21,Z+5
 405 01c4 6681      		ldd r22,Z+6
 406 01c6 7781      		ldd r23,Z+7
 407 01c8 D901      		movw r26,r18
 408 01ca C801      		movw r24,r16
 409               	.LVL18:
 410 01cc 841B      		sub r24,r20
 411 01ce 950B      		sbc r25,r21
 412 01d0 A60B      		sbc r26,r22
 413 01d2 B70B      		sbc r27,r23
 414 01d4 8D87      		std Y+13,r24
 415 01d6 9E87      		std Y+14,r25
 416 01d8 AF87      		std Y+15,r26
 417 01da B88B      		std Y+16,r27
  76:ros_lib/time.cpp ****   normalizeSecNSecSigned(d.sec, d.nsec);
 418               		.loc 1 76 0
 419 01dc BE01      		movw r22,r28
 420               	.LVL19:
 421 01de 635F      		subi r22,-13
 422 01e0 7F4F      		sbci r23,-1
 423 01e2 CE01      		movw r24,r28
 424 01e4 0996      		adiw r24,9
 425 01e6 0E94 0000 		call _ZN3ros22normalizeSecNSecSignedERlS0_
 426               	.LVL20:
  77:ros_lib/time.cpp ****   return d;
 427               		.loc 1 77 0
 428 01ea 88E0      		ldi r24,lo8(8)
 429 01ec FE01      		movw r30,r28
 430 01ee 3996      		adiw r30,9
 431 01f0 DE01      		movw r26,r28
 432 01f2 1196      		adiw r26,1
 433               		0:
 434 01f4 0190      		ld r0,Z+
 435 01f6 0D92      		st X+,r0
 436 01f8 8A95      		dec r24
 437 01fa 01F4      		brne 0b
 438 01fc 2981      		ldd r18,Y+1
 439 01fe 3A81      		ldd r19,Y+2
 440 0200 4B81      		ldd r20,Y+3
 441 0202 5C81      		ldd r21,Y+4
 442 0204 6D81      		ldd r22,Y+5
 443 0206 7E81      		ldd r23,Y+6
  78:ros_lib/time.cpp **** }
 444               		.loc 1 78 0
 445 0208 8F81      		ldd r24,Y+7
 446 020a 9885      		ldd r25,Y+8
 447               	/* epilogue start */
 448 020c 6096      		adiw r28,16
 449 020e 0FB6      		in __tmp_reg__,__SREG__
 450 0210 F894      		cli
 451 0212 DEBF      		out __SP_H__,r29
 452 0214 0FBE      		out __SREG__,__tmp_reg__
 453 0216 CDBF      		out __SP_L__,r28
 454 0218 DF91      		pop r29
 455 021a CF91      		pop r28
 456 021c 1F91      		pop r17
 457 021e 0F91      		pop r16
 458 0220 0895      		ret
 459               		.cfi_endproc
 460               	.LFE23:
 462               	.Letext0:
 463               		.file 2 "/usr/lib/avr/include/stdint.h"
 464               		.file 3 "./ros_lib/ros/duration.h"
 465               		.file 4 "ros_lib/ros/time.h"